ARM GAS  C:\Users\papag\AppData\Local\Temp\cc2z0FHV.s 			page 1


   1              		.cpu cortex-m7
   2              		.eabi_attribute 28, 1
   3              		.eabi_attribute 20, 1
   4              		.eabi_attribute 21, 1
   5              		.eabi_attribute 23, 3
   6              		.eabi_attribute 24, 1
   7              		.eabi_attribute 25, 1
   8              		.eabi_attribute 26, 1
   9              		.eabi_attribute 30, 2
  10              		.eabi_attribute 34, 1
  11              		.eabi_attribute 18, 4
  12              		.file	"button.cpp"
  13              		.text
  14              	.Ltext0:
  15              		.cfi_sections	.debug_frame
  16              		.section	.text._ZN6Button3NewEN5daisy3PinEmm,"ax",%progbits
  17              		.align	1
  18              		.p2align 2,,3
  19              		.global	_ZN6Button3NewEN5daisy3PinEmm
  20              		.arch armv7e-m
  21              		.syntax unified
  22              		.thumb
  23              		.thumb_func
  24              		.fpu fpv5-d16
  26              	_ZN6Button3NewEN5daisy3PinEmm:
  27              	.LVL0:
  28              	.LFB4788:
  29              		.file 1 "button.cpp"
   1:button.cpp    **** #include "daisy_seed.h"
   2:button.cpp    **** #include "daisysp.h"
   3:button.cpp    **** #include "button.h"
   4:button.cpp    **** 
   5:button.cpp    **** using namespace daisy;
   6:button.cpp    **** 
   7:button.cpp    **** Button Button::New(Pin pin, uint32_t shortTime, uint32_t longTime) {
  30              		.loc 1 7 68 view -0
  31              		.cfi_startproc
  32              		@ args = 0, pretend = 0, frame = 16
  33              		@ frame_needed = 0, uses_anonymous_args = 0
   8:button.cpp    ****     return Button(pin, shortTime, longTime);
  34              		.loc 1 8 5 view .LVU1
   7:button.cpp    ****     return Button(pin, shortTime, longTime);
  35              		.loc 1 7 68 is_stmt 0 view .LVU2
  36 0000 30B5     		push	{r4, r5, lr}
  37              		.cfi_def_cfa_offset 12
  38              		.cfi_offset 4, -12
  39              		.cfi_offset 5, -8
  40              		.cfi_offset 14, -4
  41              	.LBB33:
  42              	.LBB34:
   9:button.cpp    **** }
  10:button.cpp    **** 
  11:button.cpp    **** Button::Button(Pin pin, uint32_t shortTime, uint32_t longTime) {
  43              		.loc 1 11 62 view .LVU3
  44 0002 4FF60B73 		movw	r3, #65291
  45              	.LVL1:
  46              		.loc 1 11 62 view .LVU4
ARM GAS  C:\Users\papag\AppData\Local\Temp\cc2z0FHV.s 			page 2


  47              	.LBE34:
  48              	.LBE33:
   7:button.cpp    ****     return Button(pin, shortTime, longTime);
  49              		.loc 1 7 68 view .LVU5
  50 0006 87B0     		sub	sp, sp, #28
  51              		.cfi_def_cfa_offset 40
  52              	.LBB66:
  53              	.LBB61:
  54              	.LBB35:
  55              	.LBB36:
  56              	.LBB37:
  57              	.LBB38:
  58              	.LBB39:
  59              	.LBB40:
  60              		.file 2 "../DaisyExamples/libDaisy/src/per/gpio.h"
   1:../DaisyExamples/libDaisy/src/per/gpio.h **** #pragma once
   2:../DaisyExamples/libDaisy/src/per/gpio.h **** #ifndef DSY_GPIO_H
   3:../DaisyExamples/libDaisy/src/per/gpio.h **** #define DSY_GPIO_H
   4:../DaisyExamples/libDaisy/src/per/gpio.h **** #include "daisy_core.h"
   5:../DaisyExamples/libDaisy/src/per/gpio.h **** 
   6:../DaisyExamples/libDaisy/src/per/gpio.h **** #ifdef __cplusplus
   7:../DaisyExamples/libDaisy/src/per/gpio.h **** 
   8:../DaisyExamples/libDaisy/src/per/gpio.h **** namespace daisy
   9:../DaisyExamples/libDaisy/src/per/gpio.h **** {
  10:../DaisyExamples/libDaisy/src/per/gpio.h **** /** @brief General Purpose I/O control 
  11:../DaisyExamples/libDaisy/src/per/gpio.h ****  *  @details peripheral control over a single GPIO
  12:../DaisyExamples/libDaisy/src/per/gpio.h ****  *  @ingroup peripheral
  13:../DaisyExamples/libDaisy/src/per/gpio.h ****  *   
  14:../DaisyExamples/libDaisy/src/per/gpio.h ****  *  Button Input (with internal Pullup resistor)
  15:../DaisyExamples/libDaisy/src/per/gpio.h ****  *  @include GPIO_Input.cpp 
  16:../DaisyExamples/libDaisy/src/per/gpio.h ****  * 
  17:../DaisyExamples/libDaisy/src/per/gpio.h ****  *  Output Example (perfect for blinking an LED)
  18:../DaisyExamples/libDaisy/src/per/gpio.h ****  *  @include GPIO_Output.cpp
  19:../DaisyExamples/libDaisy/src/per/gpio.h ****  * 
  20:../DaisyExamples/libDaisy/src/per/gpio.h **** */
  21:../DaisyExamples/libDaisy/src/per/gpio.h **** class GPIO
  22:../DaisyExamples/libDaisy/src/per/gpio.h **** {
  23:../DaisyExamples/libDaisy/src/per/gpio.h ****   public:
  24:../DaisyExamples/libDaisy/src/per/gpio.h ****     /** @brief Mode of operation for the specified GPIO */
  25:../DaisyExamples/libDaisy/src/per/gpio.h ****     enum class Mode
  26:../DaisyExamples/libDaisy/src/per/gpio.h ****     {
  27:../DaisyExamples/libDaisy/src/per/gpio.h ****         INPUT,     /**< Input for reading state of pin */
  28:../DaisyExamples/libDaisy/src/per/gpio.h ****         OUTPUT,    /**< Output w/ push-pull configuration */
  29:../DaisyExamples/libDaisy/src/per/gpio.h ****         OUTPUT_OD, /**< Output w/ open-drain configuration */
  30:../DaisyExamples/libDaisy/src/per/gpio.h ****         ANALOG,    /**< Analog for connection to ADC or DAC peripheral */
  31:../DaisyExamples/libDaisy/src/per/gpio.h ****     };
  32:../DaisyExamples/libDaisy/src/per/gpio.h **** 
  33:../DaisyExamples/libDaisy/src/per/gpio.h ****     /** @brief Configures whether an internal Pull up or Pull down resistor is used. 
  34:../DaisyExamples/libDaisy/src/per/gpio.h ****      *  
  35:../DaisyExamples/libDaisy/src/per/gpio.h ****      * Internal Pull up/down resistors are typically 40k ohms, and will be between
  36:../DaisyExamples/libDaisy/src/per/gpio.h ****      * 30k and 50k
  37:../DaisyExamples/libDaisy/src/per/gpio.h ****      * 
  38:../DaisyExamples/libDaisy/src/per/gpio.h ****      * When the Pin is configured in Analog mode, the pull up/down resistors are
  39:../DaisyExamples/libDaisy/src/per/gpio.h ****      * disabled by hardware. 
  40:../DaisyExamples/libDaisy/src/per/gpio.h ****      */
  41:../DaisyExamples/libDaisy/src/per/gpio.h ****     enum class Pull
  42:../DaisyExamples/libDaisy/src/per/gpio.h ****     {
ARM GAS  C:\Users\papag\AppData\Local\Temp\cc2z0FHV.s 			page 3


  43:../DaisyExamples/libDaisy/src/per/gpio.h ****         NOPULL,   /**< No pull up resistor */
  44:../DaisyExamples/libDaisy/src/per/gpio.h ****         PULLUP,   /**< Internal pull up enabled */
  45:../DaisyExamples/libDaisy/src/per/gpio.h ****         PULLDOWN, /**< Internal pull down enabled*/
  46:../DaisyExamples/libDaisy/src/per/gpio.h ****     };
  47:../DaisyExamples/libDaisy/src/per/gpio.h **** 
  48:../DaisyExamples/libDaisy/src/per/gpio.h ****     /** @brief Output speed controls the drive strength, and slew rate of the pin */
  49:../DaisyExamples/libDaisy/src/per/gpio.h ****     enum class Speed
  50:../DaisyExamples/libDaisy/src/per/gpio.h ****     {
  51:../DaisyExamples/libDaisy/src/per/gpio.h ****         LOW,
  52:../DaisyExamples/libDaisy/src/per/gpio.h ****         MEDIUM,
  53:../DaisyExamples/libDaisy/src/per/gpio.h ****         HIGH,
  54:../DaisyExamples/libDaisy/src/per/gpio.h ****         VERY_HIGH,
  55:../DaisyExamples/libDaisy/src/per/gpio.h ****     };
  56:../DaisyExamples/libDaisy/src/per/gpio.h **** 
  57:../DaisyExamples/libDaisy/src/per/gpio.h ****     /** @brief Configuration for a given GPIO */
  58:../DaisyExamples/libDaisy/src/per/gpio.h ****     struct Config
  59:../DaisyExamples/libDaisy/src/per/gpio.h ****     {
  60:../DaisyExamples/libDaisy/src/per/gpio.h ****         Pin   pin;
  61:../DaisyExamples/libDaisy/src/per/gpio.h ****         Mode  mode;
  62:../DaisyExamples/libDaisy/src/per/gpio.h ****         Pull  pull;
  63:../DaisyExamples/libDaisy/src/per/gpio.h ****         Speed speed;
  64:../DaisyExamples/libDaisy/src/per/gpio.h **** 
  65:../DaisyExamples/libDaisy/src/per/gpio.h ****         /** Constructor with no arguments will prepare an invalid GPIO set as
  66:../DaisyExamples/libDaisy/src/per/gpio.h ****          *  an input, with no pullup. 
  67:../DaisyExamples/libDaisy/src/per/gpio.h ****          */
  68:../DaisyExamples/libDaisy/src/per/gpio.h ****         Config()
  69:../DaisyExamples/libDaisy/src/per/gpio.h ****         : pin(), mode(Mode::INPUT), pull(Pull::NOPULL), speed(Speed::LOW)
  61              		.loc 2 69 73 view .LVU6
  62 0008 0025     		movs	r5, #0
  63              	.LBE40:
  64              	.LBE39:
  65              	.LBE38:
  66              	.LBE37:
  67              	.LBE36:
  68              	.LBE35:
  69              	.LBE61:
  70              	.LBE66:
   7:button.cpp    ****     return Button(pin, shortTime, longTime);
  71              		.loc 1 7 68 view .LVU7
  72 000a 0446     		mov	r4, r0
  73              	.LVL2:
  74              	.LBB67:
  75              	.LBB62:
  76              		.loc 1 11 62 view .LVU8
  77 000c 0360     		str	r3, [r0]
  78              	.LBB57:
  12:button.cpp    ****     gpio.Init(pin, GPIO::Mode::INPUT, GPIO::Pull::PULLDOWN);
  79              		.loc 1 12 14 view .LVU9
  80 000e 0223     		movs	r3, #2
  81 0010 ADF81410 		strh	r1, [sp, #20]	@ movhi
  82              	.LVL3:
  83              		.loc 1 12 14 view .LVU10
  84              	.LBE57:
  85              	.LBE62:
  86              	.LBI33:
  11:button.cpp    ****     gpio.Init(pin, GPIO::Mode::INPUT, GPIO::Pull::PULLDOWN);
  87              		.loc 1 11 1 is_stmt 1 view .LVU11
ARM GAS  C:\Users\papag\AppData\Local\Temp\cc2z0FHV.s 			page 4


  88              	.LBB63:
  89              	.LBB58:
  90              	.LBB54:
  91              	.LBI36:
  70:../DaisyExamples/libDaisy/src/per/gpio.h ****         {
  71:../DaisyExamples/libDaisy/src/per/gpio.h ****         }
  72:../DaisyExamples/libDaisy/src/per/gpio.h ****     };
  73:../DaisyExamples/libDaisy/src/per/gpio.h **** 
  74:../DaisyExamples/libDaisy/src/per/gpio.h ****     GPIO() {}
  92              		.loc 2 74 5 view .LVU12
  93              	.LBB51:
  94              	.LBB48:
  95              	.LBI38:
  68:../DaisyExamples/libDaisy/src/per/gpio.h ****         : pin(), mode(Mode::INPUT), pull(Pull::NOPULL), speed(Speed::LOW)
  96              		.loc 2 68 9 view .LVU13
  97              	.LBB45:
  98              	.LBB42:
  99              	.LBB41:
 100              	.LBI41:
 101              		.file 3 "../DaisyExamples/libDaisy/src/daisy_core.h"
   1:../DaisyExamples/libDaisy/src/daisy_core.h **** #pragma once
   2:../DaisyExamples/libDaisy/src/daisy_core.h **** #ifndef DSY_CORE_HW_H
   3:../DaisyExamples/libDaisy/src/daisy_core.h **** #define DSY_CORE_HW_H /**< & */
   4:../DaisyExamples/libDaisy/src/daisy_core.h **** #include <stdint.h>
   5:../DaisyExamples/libDaisy/src/daisy_core.h **** #include <stdlib.h>
   6:../DaisyExamples/libDaisy/src/daisy_core.h **** 
   7:../DaisyExamples/libDaisy/src/daisy_core.h **** #if defined(_MSC_VER)
   8:../DaisyExamples/libDaisy/src/daisy_core.h **** #define FORCE_INLINE __forceinline /**< & */
   9:../DaisyExamples/libDaisy/src/daisy_core.h **** #elif defined(__clang__)
  10:../DaisyExamples/libDaisy/src/daisy_core.h **** #define FORCE_INLINE inline __attribute__((always_inline)) /**< & */
  11:../DaisyExamples/libDaisy/src/daisy_core.h **** #pragma clang diagnostic ignored "-Wduplicate-decl-specifier"
  12:../DaisyExamples/libDaisy/src/daisy_core.h **** #elif defined(__GNUC__)
  13:../DaisyExamples/libDaisy/src/daisy_core.h **** #define FORCE_INLINE inline __attribute__((always_inline)) /**< & */
  14:../DaisyExamples/libDaisy/src/daisy_core.h **** #else
  15:../DaisyExamples/libDaisy/src/daisy_core.h **** #error unknown compiler
  16:../DaisyExamples/libDaisy/src/daisy_core.h **** #endif
  17:../DaisyExamples/libDaisy/src/daisy_core.h **** 
  18:../DaisyExamples/libDaisy/src/daisy_core.h **** /** @addtogroup utility
  19:../DaisyExamples/libDaisy/src/daisy_core.h ****     @{
  20:../DaisyExamples/libDaisy/src/daisy_core.h **** */
  21:../DaisyExamples/libDaisy/src/daisy_core.h **** 
  22:../DaisyExamples/libDaisy/src/daisy_core.h **** /** Macro for area of memory that is configured as cacheless
  23:../DaisyExamples/libDaisy/src/daisy_core.h **** This should be used primarily for DMA buffers, and the like.
  24:../DaisyExamples/libDaisy/src/daisy_core.h **** */
  25:../DaisyExamples/libDaisy/src/daisy_core.h **** #define DMA_BUFFER_MEM_SECTION __attribute__((section(".sram1_bss")))
  26:../DaisyExamples/libDaisy/src/daisy_core.h **** /** 
  27:../DaisyExamples/libDaisy/src/daisy_core.h **** THE DTCM RAM section is also non-cached. However, is not suitable 
  28:../DaisyExamples/libDaisy/src/daisy_core.h **** for DMA transfers. Performance is on par with internal SRAM w/ 
  29:../DaisyExamples/libDaisy/src/daisy_core.h **** cache enabled.
  30:../DaisyExamples/libDaisy/src/daisy_core.h **** */
  31:../DaisyExamples/libDaisy/src/daisy_core.h **** #define DTCM_MEM_SECTION __attribute__((section(".dtcmram_bss")))
  32:../DaisyExamples/libDaisy/src/daisy_core.h **** 
  33:../DaisyExamples/libDaisy/src/daisy_core.h **** #define FBIPMAX 0.999985f             /**< close to 1.0f-LSB at 16 bit */
  34:../DaisyExamples/libDaisy/src/daisy_core.h **** #define FBIPMIN (-FBIPMAX)            /**< - (1 - LSB) */
  35:../DaisyExamples/libDaisy/src/daisy_core.h **** #define U82F_SCALE 0.0078740f         /**< 1 / 127 */
  36:../DaisyExamples/libDaisy/src/daisy_core.h **** #define F2U8_SCALE 127.0f             /**< 128 - 1 */
  37:../DaisyExamples/libDaisy/src/daisy_core.h **** #define S82F_SCALE 0.0078125f         /**< 1 / (2**7) */
ARM GAS  C:\Users\papag\AppData\Local\Temp\cc2z0FHV.s 			page 5


  38:../DaisyExamples/libDaisy/src/daisy_core.h **** #define F2S8_SCALE 127.0f             /**< (2 ** 7) - 1 */
  39:../DaisyExamples/libDaisy/src/daisy_core.h **** #define S162F_SCALE 3.0517578125e-05f /**< 1 / (2** 15) */
  40:../DaisyExamples/libDaisy/src/daisy_core.h **** #define F2S16_SCALE 32767.0f          /**< (2 ** 15) - 1 */
  41:../DaisyExamples/libDaisy/src/daisy_core.h **** #define F2S24_SCALE 8388608.0f        /**< 2 ** 23 */
  42:../DaisyExamples/libDaisy/src/daisy_core.h **** #define S242F_SCALE 1.192092896e-07f  /**< 1 / (2 ** 23) */
  43:../DaisyExamples/libDaisy/src/daisy_core.h **** #define S24SIGN 0x800000              /**< 2 ** 23 */
  44:../DaisyExamples/libDaisy/src/daisy_core.h **** #define S322F_SCALE 4.6566129e-10f    /**< 1 / (2** 31) */
  45:../DaisyExamples/libDaisy/src/daisy_core.h **** #define F2S32_SCALE 2147483647.f      /**< (2 ** 31) - 1 */
  46:../DaisyExamples/libDaisy/src/daisy_core.h **** 
  47:../DaisyExamples/libDaisy/src/daisy_core.h **** 
  48:../DaisyExamples/libDaisy/src/daisy_core.h **** /** shorthand macro for simplifying the reading of the left 
  49:../DaisyExamples/libDaisy/src/daisy_core.h ****  *  channel of a non-interleaved output buffer named out */
  50:../DaisyExamples/libDaisy/src/daisy_core.h **** #define OUT_L out[0]
  51:../DaisyExamples/libDaisy/src/daisy_core.h **** 
  52:../DaisyExamples/libDaisy/src/daisy_core.h **** /** shorthand macro for simplifying the reading of the right 
  53:../DaisyExamples/libDaisy/src/daisy_core.h ****  *  channel of a non-interleaved output buffer named out */
  54:../DaisyExamples/libDaisy/src/daisy_core.h **** #define OUT_R out[1]
  55:../DaisyExamples/libDaisy/src/daisy_core.h **** 
  56:../DaisyExamples/libDaisy/src/daisy_core.h **** /** shorthand macro for simplifying the reading of the left 
  57:../DaisyExamples/libDaisy/src/daisy_core.h ****  *  channel of a non-interleaved input buffer named in */
  58:../DaisyExamples/libDaisy/src/daisy_core.h **** #define IN_L in[0]
  59:../DaisyExamples/libDaisy/src/daisy_core.h **** 
  60:../DaisyExamples/libDaisy/src/daisy_core.h **** /** shorthand macro for simplifying the reading of the right 
  61:../DaisyExamples/libDaisy/src/daisy_core.h ****  *  channel of a non-interleaved input buffer named in */
  62:../DaisyExamples/libDaisy/src/daisy_core.h **** #define IN_R in[1]
  63:../DaisyExamples/libDaisy/src/daisy_core.h **** 
  64:../DaisyExamples/libDaisy/src/daisy_core.h **** /** 
  65:../DaisyExamples/libDaisy/src/daisy_core.h ****     Computes cube.
  66:../DaisyExamples/libDaisy/src/daisy_core.h ****     \param x Number to be cubed
  67:../DaisyExamples/libDaisy/src/daisy_core.h ****     \return x ^ 3
  68:../DaisyExamples/libDaisy/src/daisy_core.h **** */
  69:../DaisyExamples/libDaisy/src/daisy_core.h **** FORCE_INLINE float cube(float x)
  70:../DaisyExamples/libDaisy/src/daisy_core.h **** {
  71:../DaisyExamples/libDaisy/src/daisy_core.h ****     return (x * x) * x;
  72:../DaisyExamples/libDaisy/src/daisy_core.h **** }
  73:../DaisyExamples/libDaisy/src/daisy_core.h **** 
  74:../DaisyExamples/libDaisy/src/daisy_core.h **** /** 
  75:../DaisyExamples/libDaisy/src/daisy_core.h ****     Converts unsigned 8-bit to float
  76:../DaisyExamples/libDaisy/src/daisy_core.h ****     \param x Number to be scaled.
  77:../DaisyExamples/libDaisy/src/daisy_core.h ****     \return Scaled number.
  78:../DaisyExamples/libDaisy/src/daisy_core.h **** */
  79:../DaisyExamples/libDaisy/src/daisy_core.h **** FORCE_INLINE float u82f(uint8_t x)
  80:../DaisyExamples/libDaisy/src/daisy_core.h **** {
  81:../DaisyExamples/libDaisy/src/daisy_core.h ****     return ((float)x - 127.f) * U82F_SCALE;
  82:../DaisyExamples/libDaisy/src/daisy_core.h **** }
  83:../DaisyExamples/libDaisy/src/daisy_core.h **** 
  84:../DaisyExamples/libDaisy/src/daisy_core.h **** /**
  85:../DaisyExamples/libDaisy/src/daisy_core.h ****     Converts float to unsigned 8-bit
  86:../DaisyExamples/libDaisy/src/daisy_core.h **** */
  87:../DaisyExamples/libDaisy/src/daisy_core.h **** FORCE_INLINE uint8_t f2u8(float x)
  88:../DaisyExamples/libDaisy/src/daisy_core.h **** {
  89:../DaisyExamples/libDaisy/src/daisy_core.h ****     x = x <= FBIPMIN ? FBIPMIN : x;
  90:../DaisyExamples/libDaisy/src/daisy_core.h ****     x = x >= FBIPMAX ? FBIPMAX : x;
  91:../DaisyExamples/libDaisy/src/daisy_core.h ****     return (uint8_t)((x * F2U8_SCALE) + F2U8_SCALE);
  92:../DaisyExamples/libDaisy/src/daisy_core.h **** }
  93:../DaisyExamples/libDaisy/src/daisy_core.h **** 
  94:../DaisyExamples/libDaisy/src/daisy_core.h **** 
ARM GAS  C:\Users\papag\AppData\Local\Temp\cc2z0FHV.s 			page 6


  95:../DaisyExamples/libDaisy/src/daisy_core.h **** /** 
  96:../DaisyExamples/libDaisy/src/daisy_core.h ****     Converts Signed 8-bit to float
  97:../DaisyExamples/libDaisy/src/daisy_core.h ****     \param x Number to be scaled.
  98:../DaisyExamples/libDaisy/src/daisy_core.h ****     \return Scaled number.
  99:../DaisyExamples/libDaisy/src/daisy_core.h **** */
 100:../DaisyExamples/libDaisy/src/daisy_core.h **** FORCE_INLINE float s82f(int8_t x)
 101:../DaisyExamples/libDaisy/src/daisy_core.h **** {
 102:../DaisyExamples/libDaisy/src/daisy_core.h ****     return (float)x * S82F_SCALE;
 103:../DaisyExamples/libDaisy/src/daisy_core.h **** }
 104:../DaisyExamples/libDaisy/src/daisy_core.h **** 
 105:../DaisyExamples/libDaisy/src/daisy_core.h **** /**
 106:../DaisyExamples/libDaisy/src/daisy_core.h ****     Converts float to Signed 8-bit
 107:../DaisyExamples/libDaisy/src/daisy_core.h **** */
 108:../DaisyExamples/libDaisy/src/daisy_core.h **** FORCE_INLINE int8_t f2s8(float x)
 109:../DaisyExamples/libDaisy/src/daisy_core.h **** {
 110:../DaisyExamples/libDaisy/src/daisy_core.h ****     x = x <= FBIPMIN ? FBIPMIN : x;
 111:../DaisyExamples/libDaisy/src/daisy_core.h ****     x = x >= FBIPMAX ? FBIPMAX : x;
 112:../DaisyExamples/libDaisy/src/daisy_core.h ****     return (int32_t)(x * F2S8_SCALE);
 113:../DaisyExamples/libDaisy/src/daisy_core.h **** }
 114:../DaisyExamples/libDaisy/src/daisy_core.h **** 
 115:../DaisyExamples/libDaisy/src/daisy_core.h **** /** 
 116:../DaisyExamples/libDaisy/src/daisy_core.h ****     Converts Signed 16-bit to float
 117:../DaisyExamples/libDaisy/src/daisy_core.h ****     \param x Number to be scaled.
 118:../DaisyExamples/libDaisy/src/daisy_core.h ****     \return Scaled number.
 119:../DaisyExamples/libDaisy/src/daisy_core.h **** */
 120:../DaisyExamples/libDaisy/src/daisy_core.h **** FORCE_INLINE float s162f(int16_t x)
 121:../DaisyExamples/libDaisy/src/daisy_core.h **** {
 122:../DaisyExamples/libDaisy/src/daisy_core.h ****     return (float)x * S162F_SCALE;
 123:../DaisyExamples/libDaisy/src/daisy_core.h **** }
 124:../DaisyExamples/libDaisy/src/daisy_core.h **** 
 125:../DaisyExamples/libDaisy/src/daisy_core.h **** /**
 126:../DaisyExamples/libDaisy/src/daisy_core.h ****     Converts float to Signed 16-bit
 127:../DaisyExamples/libDaisy/src/daisy_core.h **** */
 128:../DaisyExamples/libDaisy/src/daisy_core.h **** FORCE_INLINE int16_t f2s16(float x)
 129:../DaisyExamples/libDaisy/src/daisy_core.h **** {
 130:../DaisyExamples/libDaisy/src/daisy_core.h ****     x = x <= FBIPMIN ? FBIPMIN : x;
 131:../DaisyExamples/libDaisy/src/daisy_core.h ****     x = x >= FBIPMAX ? FBIPMAX : x;
 132:../DaisyExamples/libDaisy/src/daisy_core.h ****     return (int32_t)(x * F2S16_SCALE);
 133:../DaisyExamples/libDaisy/src/daisy_core.h **** }
 134:../DaisyExamples/libDaisy/src/daisy_core.h **** 
 135:../DaisyExamples/libDaisy/src/daisy_core.h **** /**
 136:../DaisyExamples/libDaisy/src/daisy_core.h ****     Converts Signed 24-bit to float
 137:../DaisyExamples/libDaisy/src/daisy_core.h ****  */
 138:../DaisyExamples/libDaisy/src/daisy_core.h **** FORCE_INLINE float s242f(int32_t x)
 139:../DaisyExamples/libDaisy/src/daisy_core.h **** {
 140:../DaisyExamples/libDaisy/src/daisy_core.h ****     x = (x ^ S24SIGN) - S24SIGN; //sign extend aka ((x<<8)>>8)
 141:../DaisyExamples/libDaisy/src/daisy_core.h ****     return (float)x * S242F_SCALE;
 142:../DaisyExamples/libDaisy/src/daisy_core.h **** }
 143:../DaisyExamples/libDaisy/src/daisy_core.h **** /**
 144:../DaisyExamples/libDaisy/src/daisy_core.h ****     Converts float to Signed 24-bit
 145:../DaisyExamples/libDaisy/src/daisy_core.h ****  */
 146:../DaisyExamples/libDaisy/src/daisy_core.h **** FORCE_INLINE int32_t f2s24(float x)
 147:../DaisyExamples/libDaisy/src/daisy_core.h **** {
 148:../DaisyExamples/libDaisy/src/daisy_core.h ****     x = x <= FBIPMIN ? FBIPMIN : x;
 149:../DaisyExamples/libDaisy/src/daisy_core.h ****     x = x >= FBIPMAX ? FBIPMAX : x;
 150:../DaisyExamples/libDaisy/src/daisy_core.h ****     return (int32_t)(x * F2S24_SCALE);
 151:../DaisyExamples/libDaisy/src/daisy_core.h **** }
ARM GAS  C:\Users\papag\AppData\Local\Temp\cc2z0FHV.s 			page 7


 152:../DaisyExamples/libDaisy/src/daisy_core.h **** 
 153:../DaisyExamples/libDaisy/src/daisy_core.h **** /**
 154:../DaisyExamples/libDaisy/src/daisy_core.h ****     Converts Signed 32-bit to float
 155:../DaisyExamples/libDaisy/src/daisy_core.h ****  */
 156:../DaisyExamples/libDaisy/src/daisy_core.h **** FORCE_INLINE float s322f(int32_t x)
 157:../DaisyExamples/libDaisy/src/daisy_core.h **** {
 158:../DaisyExamples/libDaisy/src/daisy_core.h ****     return (float)x * S322F_SCALE;
 159:../DaisyExamples/libDaisy/src/daisy_core.h **** }
 160:../DaisyExamples/libDaisy/src/daisy_core.h **** /**
 161:../DaisyExamples/libDaisy/src/daisy_core.h ****     Converts float to Signed 24-bit
 162:../DaisyExamples/libDaisy/src/daisy_core.h ****  */
 163:../DaisyExamples/libDaisy/src/daisy_core.h **** FORCE_INLINE int32_t f2s32(float x)
 164:../DaisyExamples/libDaisy/src/daisy_core.h **** {
 165:../DaisyExamples/libDaisy/src/daisy_core.h ****     x = x <= FBIPMIN ? FBIPMIN : x;
 166:../DaisyExamples/libDaisy/src/daisy_core.h ****     x = x >= FBIPMAX ? FBIPMAX : x;
 167:../DaisyExamples/libDaisy/src/daisy_core.h ****     return (int32_t)(x * F2S32_SCALE);
 168:../DaisyExamples/libDaisy/src/daisy_core.h **** }
 169:../DaisyExamples/libDaisy/src/daisy_core.h **** 
 170:../DaisyExamples/libDaisy/src/daisy_core.h **** 
 171:../DaisyExamples/libDaisy/src/daisy_core.h **** /** Enums and a simple struct for defining a hardware pin on the MCU
 172:../DaisyExamples/libDaisy/src/daisy_core.h ****  *  These correlate with the stm32 datasheet, and are used to configure
 173:../DaisyExamples/libDaisy/src/daisy_core.h ****  *  the hardware.
 174:../DaisyExamples/libDaisy/src/daisy_core.h ****  * 
 175:../DaisyExamples/libDaisy/src/daisy_core.h ****  *  This along with the dsy_gpio_pin class should no longer be used.
 176:../DaisyExamples/libDaisy/src/daisy_core.h ****  *  They are available for backwards compatability. 
 177:../DaisyExamples/libDaisy/src/daisy_core.h ****  * 
 178:../DaisyExamples/libDaisy/src/daisy_core.h ****  *  Please use GPIOPort enum and the Pin struct instead.
 179:../DaisyExamples/libDaisy/src/daisy_core.h ****  */
 180:../DaisyExamples/libDaisy/src/daisy_core.h **** typedef enum
 181:../DaisyExamples/libDaisy/src/daisy_core.h **** {
 182:../DaisyExamples/libDaisy/src/daisy_core.h ****     DSY_GPIOA, /**< & */
 183:../DaisyExamples/libDaisy/src/daisy_core.h ****     DSY_GPIOB, /**< & */
 184:../DaisyExamples/libDaisy/src/daisy_core.h ****     DSY_GPIOC, /**< & */
 185:../DaisyExamples/libDaisy/src/daisy_core.h ****     DSY_GPIOD, /**< & */
 186:../DaisyExamples/libDaisy/src/daisy_core.h ****     DSY_GPIOE, /**< & */
 187:../DaisyExamples/libDaisy/src/daisy_core.h ****     DSY_GPIOF, /**< & */
 188:../DaisyExamples/libDaisy/src/daisy_core.h ****     DSY_GPIOG, /**< & */
 189:../DaisyExamples/libDaisy/src/daisy_core.h ****     DSY_GPIOH, /**< & */
 190:../DaisyExamples/libDaisy/src/daisy_core.h ****     DSY_GPIOI, /**< & */
 191:../DaisyExamples/libDaisy/src/daisy_core.h ****     DSY_GPIOJ, /**< & */
 192:../DaisyExamples/libDaisy/src/daisy_core.h ****     DSY_GPIOK, /**< & */
 193:../DaisyExamples/libDaisy/src/daisy_core.h ****     DSY_GPIOX, /** This is a non-existant port for unsupported bits of hardware. */
 194:../DaisyExamples/libDaisy/src/daisy_core.h ****     DSY_GPIO_LAST, /** Final enum member */
 195:../DaisyExamples/libDaisy/src/daisy_core.h **** } dsy_gpio_port;
 196:../DaisyExamples/libDaisy/src/daisy_core.h **** 
 197:../DaisyExamples/libDaisy/src/daisy_core.h **** /** Hardware define pins 
 198:../DaisyExamples/libDaisy/src/daisy_core.h ****  *  
 199:../DaisyExamples/libDaisy/src/daisy_core.h ****  *  The dsy_gpio_pin struct should no longer be used, and is only available for
 200:../DaisyExamples/libDaisy/src/daisy_core.h ****  *  backwards compatability.
 201:../DaisyExamples/libDaisy/src/daisy_core.h ****  * 
 202:../DaisyExamples/libDaisy/src/daisy_core.h ****  *  Please use Pin struct instead.
 203:../DaisyExamples/libDaisy/src/daisy_core.h ****  */
 204:../DaisyExamples/libDaisy/src/daisy_core.h **** typedef struct
 205:../DaisyExamples/libDaisy/src/daisy_core.h **** {
 206:../DaisyExamples/libDaisy/src/daisy_core.h ****     dsy_gpio_port port; /**< & */
 207:../DaisyExamples/libDaisy/src/daisy_core.h ****     uint8_t       pin;  /**< number 0-15 */
 208:../DaisyExamples/libDaisy/src/daisy_core.h **** } dsy_gpio_pin;
ARM GAS  C:\Users\papag\AppData\Local\Temp\cc2z0FHV.s 			page 8


 209:../DaisyExamples/libDaisy/src/daisy_core.h **** 
 210:../DaisyExamples/libDaisy/src/daisy_core.h **** /** Helper for creating pins from port/pin combos easily
 211:../DaisyExamples/libDaisy/src/daisy_core.h ****  * 
 212:../DaisyExamples/libDaisy/src/daisy_core.h ****  *  The dsy_gpio_pin struct should no longer be used, and is only available for
 213:../DaisyExamples/libDaisy/src/daisy_core.h ****  *  backwards compatability.
 214:../DaisyExamples/libDaisy/src/daisy_core.h ****  * 
 215:../DaisyExamples/libDaisy/src/daisy_core.h ****  *  Please use Pin struct instead.
 216:../DaisyExamples/libDaisy/src/daisy_core.h **** */
 217:../DaisyExamples/libDaisy/src/daisy_core.h **** FORCE_INLINE dsy_gpio_pin dsy_pin(dsy_gpio_port port, uint8_t pin)
 218:../DaisyExamples/libDaisy/src/daisy_core.h **** {
 219:../DaisyExamples/libDaisy/src/daisy_core.h ****     dsy_gpio_pin p;
 220:../DaisyExamples/libDaisy/src/daisy_core.h ****     p.port = port;
 221:../DaisyExamples/libDaisy/src/daisy_core.h ****     p.pin  = pin;
 222:../DaisyExamples/libDaisy/src/daisy_core.h ****     return p;
 223:../DaisyExamples/libDaisy/src/daisy_core.h **** }
 224:../DaisyExamples/libDaisy/src/daisy_core.h **** 
 225:../DaisyExamples/libDaisy/src/daisy_core.h **** /** Helper for testing sameness of two dsy_gpio_pins
 226:../DaisyExamples/libDaisy/src/daisy_core.h ****  *  \return    1 if same, 0 if different
 227:../DaisyExamples/libDaisy/src/daisy_core.h ****  * 
 228:../DaisyExamples/libDaisy/src/daisy_core.h ****  *  The dsy_gpio_pin struct should no longer be used, and is only available for
 229:../DaisyExamples/libDaisy/src/daisy_core.h ****  *  backwards compatability.
 230:../DaisyExamples/libDaisy/src/daisy_core.h ****  * 
 231:../DaisyExamples/libDaisy/src/daisy_core.h ****  *  Please use Pin struct instead.
 232:../DaisyExamples/libDaisy/src/daisy_core.h ****  */
 233:../DaisyExamples/libDaisy/src/daisy_core.h **** FORCE_INLINE uint8_t dsy_pin_cmp(dsy_gpio_pin *a, dsy_gpio_pin *b)
 234:../DaisyExamples/libDaisy/src/daisy_core.h **** {
 235:../DaisyExamples/libDaisy/src/daisy_core.h ****     return ((a->port == b->port) && (a->pin == b->pin));
 236:../DaisyExamples/libDaisy/src/daisy_core.h **** }
 237:../DaisyExamples/libDaisy/src/daisy_core.h **** 
 238:../DaisyExamples/libDaisy/src/daisy_core.h **** #ifdef __cplusplus
 239:../DaisyExamples/libDaisy/src/daisy_core.h **** 
 240:../DaisyExamples/libDaisy/src/daisy_core.h **** namespace daisy
 241:../DaisyExamples/libDaisy/src/daisy_core.h **** {
 242:../DaisyExamples/libDaisy/src/daisy_core.h **** /** @brief GPIO Port names */
 243:../DaisyExamples/libDaisy/src/daisy_core.h **** enum GPIOPort
 244:../DaisyExamples/libDaisy/src/daisy_core.h **** {
 245:../DaisyExamples/libDaisy/src/daisy_core.h ****     PORTA, /**< Port A */
 246:../DaisyExamples/libDaisy/src/daisy_core.h ****     PORTB, /**< Port B */
 247:../DaisyExamples/libDaisy/src/daisy_core.h ****     PORTC, /**< Port C */
 248:../DaisyExamples/libDaisy/src/daisy_core.h ****     PORTD, /**< Port D */
 249:../DaisyExamples/libDaisy/src/daisy_core.h ****     PORTE, /**< Port E */
 250:../DaisyExamples/libDaisy/src/daisy_core.h ****     PORTF, /**< Port F */
 251:../DaisyExamples/libDaisy/src/daisy_core.h ****     PORTG, /**< Port G */
 252:../DaisyExamples/libDaisy/src/daisy_core.h ****     PORTH, /**< Port H */
 253:../DaisyExamples/libDaisy/src/daisy_core.h ****     PORTI, /**< Port I */
 254:../DaisyExamples/libDaisy/src/daisy_core.h ****     PORTJ, /**< Port J */
 255:../DaisyExamples/libDaisy/src/daisy_core.h ****     PORTK, /**< Port K */
 256:../DaisyExamples/libDaisy/src/daisy_core.h ****     PORTX, /**< Used as a dummy port to signal an invalid pin. */
 257:../DaisyExamples/libDaisy/src/daisy_core.h **** };
 258:../DaisyExamples/libDaisy/src/daisy_core.h **** 
 259:../DaisyExamples/libDaisy/src/daisy_core.h **** /** @brief representation of hardware port/pin combination */
 260:../DaisyExamples/libDaisy/src/daisy_core.h **** struct Pin
 261:../DaisyExamples/libDaisy/src/daisy_core.h **** {
 262:../DaisyExamples/libDaisy/src/daisy_core.h ****     GPIOPort port;
 263:../DaisyExamples/libDaisy/src/daisy_core.h ****     uint8_t  pin;
 264:../DaisyExamples/libDaisy/src/daisy_core.h **** 
 265:../DaisyExamples/libDaisy/src/daisy_core.h ****     /** @brief Constructor creates a valid pin. 
ARM GAS  C:\Users\papag\AppData\Local\Temp\cc2z0FHV.s 			page 9


 266:../DaisyExamples/libDaisy/src/daisy_core.h ****      *  @param pt GPIOPort between PA, and PK corresponding to STM32 Port.
 267:../DaisyExamples/libDaisy/src/daisy_core.h ****      *  @param pn pin number in range of 0-15
 268:../DaisyExamples/libDaisy/src/daisy_core.h ****     */
 269:../DaisyExamples/libDaisy/src/daisy_core.h ****     constexpr Pin(const GPIOPort pt, const uint8_t pn) : port(pt), pin(pn) {}
 270:../DaisyExamples/libDaisy/src/daisy_core.h **** 
 271:../DaisyExamples/libDaisy/src/daisy_core.h ****     /** @brief Basic Constructor creates an invalid Pin object */
 272:../DaisyExamples/libDaisy/src/daisy_core.h ****     constexpr Pin() : port(PORTX), pin(255) {}
 102              		.loc 3 272 15 view .LVU14
 103              		.loc 3 272 15 is_stmt 0 view .LVU15
 104              	.LBE41:
 105              	.LBE42:
 106              	.LBE45:
 107              	.LBE48:
 108              	.LBE51:
 109              	.LBE54:
 110              		.loc 1 12 14 view .LVU16
 111 0014 2A46     		mov	r2, r5
 112              	.LVL4:
 113              		.loc 1 12 14 view .LVU17
 114              	.LBE58:
 115              	.LBE63:
 116              	.LBE67:
   7:button.cpp    ****     return Button(pin, shortTime, longTime);
 117              		.loc 1 7 68 view .LVU18
 118 0016 ADF80C10 		strh	r1, [sp, #12]	@ movhi
 119              	.LBB68:
 120              	.LBB64:
 121              	.LBB59:
 122              	.LBB55:
 123              	.LBB52:
 124              	.LBB49:
 125              	.LBB46:
 126              	.LBB43:
  69:../DaisyExamples/libDaisy/src/per/gpio.h ****         {
 127              		.loc 2 69 73 view .LVU19
 128 001a C560     		str	r5, [r0, #12]
 129              	.LVL5:
  69:../DaisyExamples/libDaisy/src/per/gpio.h ****         {
 130              		.loc 2 69 73 view .LVU20
 131              	.LBE43:
 132              	.LBE46:
 133              	.LBE49:
 134              	.LBE52:
 135              	.LBE55:
 136              		.loc 1 12 5 is_stmt 1 view .LVU21
 137              		.loc 1 12 14 is_stmt 0 view .LVU22
 138 001c 0599     		ldr	r1, [sp, #20]
 139              	.LBB56:
 140              	.LBB53:
 141              	.LBB50:
 142              	.LBB47:
 143              	.LBB44:
  69:../DaisyExamples/libDaisy/src/per/gpio.h ****         {
 144              		.loc 2 69 73 view .LVU23
 145 001e C0E90155 		strd	r5, r5, [r0, #4]
 146              	.LBE44:
 147              	.LBE47:
ARM GAS  C:\Users\papag\AppData\Local\Temp\cc2z0FHV.s 			page 10


 148              	.LBE50:
 149              	.LBE53:
 150              	.LBE56:
 151              		.loc 1 12 14 view .LVU24
 152 0022 0095     		str	r5, [sp]
 153 0024 FFF7FEFF 		bl	_ZN5daisy4GPIO4InitENS_3PinENS0_4ModeENS0_4PullENS0_5SpeedE
 154              	.LVL6:
  13:button.cpp    ****     previousState = false;
 155              		.loc 1 13 5 is_stmt 1 view .LVU25
 156              	.LBE59:
 157              	.LBE64:
 158              	.LBE68:
   9:button.cpp    **** 
 159              		.loc 1 9 1 is_stmt 0 view .LVU26
 160 0028 2046     		mov	r0, r4
 161              	.LBB69:
 162              	.LBB65:
 163              	.LBB60:
 164              		.loc 1 13 19 view .LVU27
 165 002a 2575     		strb	r5, [r4, #20]
 166              	.LVL7:
 167              		.loc 1 13 19 view .LVU28
 168              	.LBE60:
 169              	.LBE65:
 170              	.LBE69:
   9:button.cpp    **** 
 171              		.loc 1 9 1 view .LVU29
 172 002c 07B0     		add	sp, sp, #28
 173              		.cfi_def_cfa_offset 12
 174              		@ sp needed
 175 002e 30BD     		pop	{r4, r5, pc}
   9:button.cpp    **** 
 176              		.loc 1 9 1 view .LVU30
 177              		.cfi_endproc
 178              	.LFE4788:
 180              		.section	.text._ZN6ButtonC2EN5daisy3PinEmm,"ax",%progbits
 181              		.align	1
 182              		.p2align 2,,3
 183              		.global	_ZN6ButtonC2EN5daisy3PinEmm
 184              		.syntax unified
 185              		.thumb
 186              		.thumb_func
 187              		.fpu fpv5-d16
 189              	_ZN6ButtonC2EN5daisy3PinEmm:
 190              	.LVL8:
 191              	.LFB4790:
  11:button.cpp    ****     gpio.Init(pin, GPIO::Mode::INPUT, GPIO::Pull::PULLDOWN);
 192              		.loc 1 11 1 is_stmt 1 view -0
 193              		.cfi_startproc
 194              		@ args = 0, pretend = 0, frame = 8
 195              		@ frame_needed = 0, uses_anonymous_args = 0
  11:button.cpp    ****     gpio.Init(pin, GPIO::Mode::INPUT, GPIO::Pull::PULLDOWN);
 196              		.loc 1 11 1 is_stmt 0 view .LVU32
 197 0000 30B5     		push	{r4, r5, lr}
 198              		.cfi_def_cfa_offset 12
 199              		.cfi_offset 4, -12
 200              		.cfi_offset 5, -8
ARM GAS  C:\Users\papag\AppData\Local\Temp\cc2z0FHV.s 			page 11


 201              		.cfi_offset 14, -4
 202              	.LBB70:
 203              	.LBB71:
 204              	.LBB72:
 205              	.LBB73:
 206              	.LBB74:
 207              	.LBB75:
 208              		.loc 3 272 43 view .LVU33
 209 0002 0B22     		movs	r2, #11
 210              	.LVL9:
 211              		.loc 3 272 43 view .LVU34
 212              	.LBE75:
 213              	.LBE74:
 214              	.LBE73:
 215              	.LBE72:
 216              	.LBE71:
 217              	.LBE70:
  11:button.cpp    ****     gpio.Init(pin, GPIO::Mode::INPUT, GPIO::Pull::PULLDOWN);
 218              		.loc 1 11 1 view .LVU35
 219 0004 85B0     		sub	sp, sp, #20
 220              		.cfi_def_cfa_offset 32
 221              	.LBB101:
 222              	.LBB95:
 223              	.LBB89:
 224              	.LBB83:
  69:../DaisyExamples/libDaisy/src/per/gpio.h ****         {
 225              		.loc 2 69 73 view .LVU36
 226 0006 0025     		movs	r5, #0
 227              	.LBB79:
 228              	.LBB76:
 229              		.loc 3 272 43 view .LVU37
 230 0008 FF23     		movs	r3, #255
 231              	.LVL10:
 232              		.loc 3 272 43 view .LVU38
 233              	.LBE76:
 234              	.LBE79:
 235              	.LBE83:
 236              	.LBE89:
 237              	.LBE95:
 238              	.LBE101:
  11:button.cpp    ****     gpio.Init(pin, GPIO::Mode::INPUT, GPIO::Pull::PULLDOWN);
 239              		.loc 1 11 1 view .LVU39
 240 000a ADF80C10 		strh	r1, [sp, #12]	@ movhi
 241 000e 0446     		mov	r4, r0
 242              	.LVL11:
 243              	.LBB102:
 244              	.LBB96:
 245              	.LBI71:
 246              		.loc 2 74 5 is_stmt 1 view .LVU40
 247              	.LBB90:
 248              	.LBI72:
  68:../DaisyExamples/libDaisy/src/per/gpio.h ****         : pin(), mode(Mode::INPUT), pull(Pull::NOPULL), speed(Speed::LOW)
 249              		.loc 2 68 9 view .LVU41
 250              	.LBB84:
 251              	.LBB80:
 252              	.LBI74:
 253              		.loc 3 272 15 view .LVU42
ARM GAS  C:\Users\papag\AppData\Local\Temp\cc2z0FHV.s 			page 12


 254              	.LBE80:
 255              	.LBE84:
 256              	.LBE90:
 257              	.LBE96:
  12:button.cpp    ****     previousState = false;
 258              		.loc 1 12 14 is_stmt 0 view .LVU43
 259 0010 0095     		str	r5, [sp]
 260              	.LBB97:
 261              	.LBB91:
 262              	.LBB85:
 263              	.LBB81:
 264              	.LBB77:
 265              		.loc 3 272 43 view .LVU44
 266 0012 0270     		strb	r2, [r0]
 267              	.LBE77:
 268              	.LBE81:
 269              	.LBE85:
 270              	.LBE91:
 271              	.LBE97:
  12:button.cpp    ****     previousState = false;
 272              		.loc 1 12 14 view .LVU45
 273 0014 2A46     		mov	r2, r5
 274              	.LBB98:
 275              	.LBB92:
 276              	.LBB86:
 277              	.LBB82:
 278              	.LBB78:
 279              		.loc 3 272 43 view .LVU46
 280 0016 4370     		strb	r3, [r0, #1]
 281              	.LVL12:
 282              		.loc 3 272 43 view .LVU47
 283              	.LBE78:
 284              	.LBE82:
 285              	.LBE86:
 286              	.LBE92:
 287              	.LBE98:
  12:button.cpp    ****     previousState = false;
 288              		.loc 1 12 14 view .LVU48
 289 0018 0223     		movs	r3, #2
 290              	.LBB99:
 291              	.LBB93:
 292              	.LBB87:
  69:../DaisyExamples/libDaisy/src/per/gpio.h ****         {
 293              		.loc 2 69 73 view .LVU49
 294 001a C560     		str	r5, [r0, #12]
 295              	.LVL13:
  69:../DaisyExamples/libDaisy/src/per/gpio.h ****         {
 296              		.loc 2 69 73 view .LVU50
 297              	.LBE87:
 298              	.LBE93:
 299              	.LBE99:
  12:button.cpp    ****     previousState = false;
 300              		.loc 1 12 5 is_stmt 1 view .LVU51
  12:button.cpp    ****     previousState = false;
 301              		.loc 1 12 14 is_stmt 0 view .LVU52
 302 001c 0399     		ldr	r1, [sp, #12]
 303              	.LBB100:
ARM GAS  C:\Users\papag\AppData\Local\Temp\cc2z0FHV.s 			page 13


 304              	.LBB94:
 305              	.LBB88:
  69:../DaisyExamples/libDaisy/src/per/gpio.h ****         {
 306              		.loc 2 69 73 view .LVU53
 307 001e C0E90155 		strd	r5, r5, [r0, #4]
 308              	.LBE88:
 309              	.LBE94:
 310              	.LBE100:
  12:button.cpp    ****     previousState = false;
 311              		.loc 1 12 14 view .LVU54
 312 0022 FFF7FEFF 		bl	_ZN5daisy4GPIO4InitENS_3PinENS0_4ModeENS0_4PullENS0_5SpeedE
 313              	.LVL14:
 314              		.loc 1 13 5 is_stmt 1 view .LVU55
 315              	.LBE102:
  14:button.cpp    **** }
 316              		.loc 1 14 1 is_stmt 0 view .LVU56
 317 0026 2046     		mov	r0, r4
 318              	.LBB103:
  13:button.cpp    **** }
 319              		.loc 1 13 19 view .LVU57
 320 0028 2575     		strb	r5, [r4, #20]
 321              	.LBE103:
 322              		.loc 1 14 1 view .LVU58
 323 002a 05B0     		add	sp, sp, #20
 324              		.cfi_def_cfa_offset 12
 325              		@ sp needed
 326 002c 30BD     		pop	{r4, r5, pc}
 327              		.loc 1 14 1 view .LVU59
 328              		.cfi_endproc
 329              	.LFE4790:
 331              		.global	_ZN6ButtonC1EN5daisy3PinEmm
 332              		.thumb_set _ZN6ButtonC1EN5daisy3PinEmm,_ZN6ButtonC2EN5daisy3PinEmm
 333 002e 00BF     		.section	.text._ZN6Button5CheckEv,"ax",%progbits
 334              		.align	1
 335              		.p2align 2,,3
 336              		.global	_ZN6Button5CheckEv
 337              		.syntax unified
 338              		.thumb
 339              		.thumb_func
 340              		.fpu fpv5-d16
 342              	_ZN6Button5CheckEv:
 343              	.LVL15:
 344              	.LFB4792:
  15:button.cpp    **** 
  16:button.cpp    **** bool Button::Check()
  17:button.cpp    **** {
 345              		.loc 1 17 1 is_stmt 1 view -0
 346              		.cfi_startproc
 347              		@ args = 0, pretend = 0, frame = 0
 348              		@ frame_needed = 0, uses_anonymous_args = 0
  18:button.cpp    ****     bool pressed = gpio.Read();
 349              		.loc 1 18 5 view .LVU61
  17:button.cpp    ****     bool pressed = gpio.Read();
 350              		.loc 1 17 1 is_stmt 0 view .LVU62
 351 0000 10B5     		push	{r4, lr}
 352              		.cfi_def_cfa_offset 8
 353              		.cfi_offset 4, -8
ARM GAS  C:\Users\papag\AppData\Local\Temp\cc2z0FHV.s 			page 14


 354              		.cfi_offset 14, -4
  17:button.cpp    ****     bool pressed = gpio.Read();
 355              		.loc 1 17 1 view .LVU63
 356 0002 0446     		mov	r4, r0
 357              		.loc 1 18 29 view .LVU64
 358 0004 FFF7FEFF 		bl	_ZN5daisy4GPIO4ReadEv
 359              	.LVL16:
  19:button.cpp    ****     if(pressed == previousState)
 360              		.loc 1 19 5 view .LVU65
 361 0008 237D     		ldrb	r3, [r4, #20]	@ zero_extendqisi2
 362              	.LVL17:
 363              		.loc 1 19 5 is_stmt 1 view .LVU66
 364 000a 8342     		cmp	r3, r0
 365 000c 0DD0     		beq	.L10
  20:button.cpp    ****         return false;
  21:button.cpp    ****     previousState = pressed;
 366              		.loc 1 21 5 view .LVU67
 367              		.loc 1 21 19 is_stmt 0 view .LVU68
 368 000e 2075     		strb	r0, [r4, #20]
  22:button.cpp    ****     if(pressed)
 369              		.loc 1 22 5 is_stmt 1 view .LVU69
 370              	.LBB104:
 371 0010 28B1     		cbz	r0, .L9
  23:button.cpp    ****     {
  24:button.cpp    ****         pressedTime = System::GetNow();
 372              		.loc 1 24 9 view .LVU70
 373              		.loc 1 24 37 is_stmt 0 view .LVU71
 374 0012 FFF7FEFF 		bl	_ZN5daisy6System6GetNowEv
 375              	.LVL18:
 376              		.loc 1 24 37 view .LVU72
 377 0016 0346     		mov	r3, r0
 378              	.LBE104:
  25:button.cpp    ****     }
  26:button.cpp    ****     else
  27:button.cpp    ****     {
  28:button.cpp    ****         uint32_t duration = System::GetNow() - pressedTime;
  29:button.cpp    ****         if(duration < 5) // bounce
  30:button.cpp    ****             return false;
  31:button.cpp    ****         longPress = duration > longTime;
  32:button.cpp    ****         return true;
  33:button.cpp    ****     }
  34:button.cpp    ****     return false;
 379              		.loc 1 34 12 view .LVU73
 380 0018 0020     		movs	r0, #0
 381              	.LBB107:
  24:button.cpp    ****     }
 382              		.loc 1 24 21 view .LVU74
 383 001a A361     		str	r3, [r4, #24]
 384              	.LBE107:
 385              		.loc 1 34 5 is_stmt 1 view .LVU75
  35:button.cpp    **** }
 386              		.loc 1 35 1 is_stmt 0 view .LVU76
 387 001c 10BD     		pop	{r4, pc}
 388              	.LVL19:
 389              	.L9:
 390              	.LBB108:
 391              	.LBB105:
ARM GAS  C:\Users\papag\AppData\Local\Temp\cc2z0FHV.s 			page 15


  28:button.cpp    ****         if(duration < 5) // bounce
 392              		.loc 1 28 9 is_stmt 1 view .LVU77
  28:button.cpp    ****         if(duration < 5) // bounce
 393              		.loc 1 28 43 is_stmt 0 view .LVU78
 394 001e FFF7FEFF 		bl	_ZN5daisy6System6GetNowEv
 395              	.LVL20:
  28:button.cpp    ****         if(duration < 5) // bounce
 396              		.loc 1 28 48 view .LVU79
 397 0022 A369     		ldr	r3, [r4, #24]
 398 0024 C31A     		subs	r3, r0, r3
 399              	.LVL21:
  29:button.cpp    ****             return false;
 400              		.loc 1 29 9 is_stmt 1 view .LVU80
 401 0026 042B     		cmp	r3, #4
 402 0028 01D8     		bhi	.L12
 403              	.LVL22:
 404              	.L10:
  29:button.cpp    ****             return false;
 405              		.loc 1 29 9 is_stmt 0 view .LVU81
 406              	.LBE105:
 407              	.LBE108:
  20:button.cpp    ****     previousState = pressed;
 408              		.loc 1 20 16 view .LVU82
 409 002a 0020     		movs	r0, #0
 410              		.loc 1 35 1 view .LVU83
 411 002c 10BD     		pop	{r4, pc}
 412              	.LVL23:
 413              	.L12:
 414              	.LBB109:
 415              	.LBB106:
  31:button.cpp    ****         return true;
 416              		.loc 1 31 9 is_stmt 1 view .LVU84
  31:button.cpp    ****         return true;
 417              		.loc 1 31 30 is_stmt 0 view .LVU85
 418 002e 226A     		ldr	r2, [r4, #32]
  32:button.cpp    ****     }
 419              		.loc 1 32 16 view .LVU86
 420 0030 0120     		movs	r0, #1
  31:button.cpp    ****         return true;
 421              		.loc 1 31 30 view .LVU87
 422 0032 9A42     		cmp	r2, r3
 423 0034 2CBF     		ite	cs
 424 0036 0023     		movcs	r3, #0
 425              	.LVL24:
  31:button.cpp    ****         return true;
 426              		.loc 1 31 30 view .LVU88
 427 0038 0123     		movcc	r3, #1
 428 003a 6375     		strb	r3, [r4, #21]
  32:button.cpp    ****     }
 429              		.loc 1 32 9 is_stmt 1 view .LVU89
 430              	.LBE106:
 431              	.LBE109:
 432              		.loc 1 35 1 is_stmt 0 view .LVU90
 433 003c 10BD     		pop	{r4, pc}
 434              		.loc 1 35 1 view .LVU91
 435              		.cfi_endproc
 436              	.LFE4792:
ARM GAS  C:\Users\papag\AppData\Local\Temp\cc2z0FHV.s 			page 16


 438 003e 00BF     		.section	.text._ZN6Button10GetPressedEv,"ax",%progbits
 439              		.align	1
 440              		.p2align 2,,3
 441              		.global	_ZN6Button10GetPressedEv
 442              		.syntax unified
 443              		.thumb
 444              		.thumb_func
 445              		.fpu fpv5-d16
 447              	_ZN6Button10GetPressedEv:
 448              	.LVL25:
 449              	.LFB4793:
  36:button.cpp    **** 
  37:button.cpp    **** bool Button::GetPressed()
  38:button.cpp    **** {
 450              		.loc 1 38 1 is_stmt 1 view -0
 451              		.cfi_startproc
 452              		@ args = 0, pretend = 0, frame = 0
 453              		@ frame_needed = 0, uses_anonymous_args = 0
 454              		@ link register save eliminated.
  39:button.cpp    ****     return previousState;
 455              		.loc 1 39 5 view .LVU93
  40:button.cpp    **** }
 456              		.loc 1 40 1 is_stmt 0 view .LVU94
 457 0000 007D     		ldrb	r0, [r0, #20]	@ zero_extendqisi2
 458              	.LVL26:
 459              		.loc 1 40 1 view .LVU95
 460 0002 7047     		bx	lr
 461              		.cfi_endproc
 462              	.LFE4793:
 464              		.section	.text._ZN6Button7GetLongEv,"ax",%progbits
 465              		.align	1
 466              		.p2align 2,,3
 467              		.global	_ZN6Button7GetLongEv
 468              		.syntax unified
 469              		.thumb
 470              		.thumb_func
 471              		.fpu fpv5-d16
 473              	_ZN6Button7GetLongEv:
 474              	.LVL27:
 475              	.LFB4794:
  41:button.cpp    **** 
  42:button.cpp    **** bool Button::GetLong()
  43:button.cpp    **** {
 476              		.loc 1 43 1 is_stmt 1 view -0
 477              		.cfi_startproc
 478              		@ args = 0, pretend = 0, frame = 0
 479              		@ frame_needed = 0, uses_anonymous_args = 0
 480              		@ link register save eliminated.
  44:button.cpp    ****     return longPress;
 481              		.loc 1 44 5 view .LVU97
  45:button.cpp    **** }...
 482              		.loc 1 45 1 is_stmt 0 view .LVU98
 483 0000 407D     		ldrb	r0, [r0, #21]	@ zero_extendqisi2
 484              	.LVL28:
 485              		.loc 1 45 1 view .LVU99
 486 0002 7047     		bx	lr
 487              		.cfi_endproc
ARM GAS  C:\Users\papag\AppData\Local\Temp\cc2z0FHV.s 			page 17


 488              	.LFE4794:
 490              		.text
 491              	.Letext0:
 492              		.file 4 "c:\\program files\\daisytoolchain\\arm-none-eabi\\include\\machine\\_default_types.h"
 493              		.file 5 "c:\\program files\\daisytoolchain\\arm-none-eabi\\include\\sys\\_stdint.h"
 494              		.file 6 "c:\\program files\\daisytoolchain\\arm-none-eabi\\include\\stdint.h"
 495              		.file 7 "c:\\program files\\daisytoolchain\\lib\\gcc\\arm-none-eabi\\10.2.1\\include\\stddef.h"
 496              		.file 8 "c:\\program files\\daisytoolchain\\arm-none-eabi\\include\\c++\\10.2.1\\cmath"
 497              		.file 9 "c:\\program files\\daisytoolchain\\arm-none-eabi\\include\\c++\\10.2.1\\bits\\std_abs.h"
 498              		.file 10 "c:\\program files\\daisytoolchain\\arm-none-eabi\\include\\c++\\10.2.1\\cstdlib"
 499              		.file 11 "c:\\program files\\daisytoolchain\\arm-none-eabi\\include\\c++\\10.2.1\\cstdint"
 500              		.file 12 "c:\\program files\\daisytoolchain\\arm-none-eabi\\include\\c++\\10.2.1\\type_traits"
 501              		.file 13 "c:\\program files\\daisytoolchain\\arm-none-eabi\\include\\c++\\10.2.1\\debug\\debug.h"
 502              		.file 14 "c:\\program files\\daisytoolchain\\arm-none-eabi\\include\\c++\\10.2.1\\arm-none-eabi\\t
 503              		.file 15 "c:\\program files\\daisytoolchain\\arm-none-eabi\\include\\c++\\10.2.1\\bits\\algorithmf
 504              		.file 16 "c:\\program files\\daisytoolchain\\arm-none-eabi\\include\\c++\\10.2.1\\bits\\stl_pair.h
 505              		.file 17 "c:\\program files\\daisytoolchain\\arm-none-eabi\\include\\c++\\10.2.1\\bits\\exception_
 506              		.file 18 "c:\\program files\\daisytoolchain\\arm-none-eabi\\include\\c++\\10.2.1\\cstdarg"
 507              		.file 19 "c:\\program files\\daisytoolchain\\arm-none-eabi\\include\\c++\\10.2.1\\cstdio"
 508              		.file 20 "c:\\program files\\daisytoolchain\\arm-none-eabi\\include\\c++\\10.2.1\\cstring"
 509              		.file 21 "c:\\program files\\daisytoolchain\\arm-none-eabi\\include\\c++\\10.2.1\\cwchar"
 510              		.file 22 "c:\\program files\\daisytoolchain\\arm-none-eabi\\include\\c++\\10.2.1\\clocale"
 511              		.file 23 "c:\\program files\\daisytoolchain\\arm-none-eabi\\include\\c++\\10.2.1\\bits\\basic_stri
 512              		.file 24 "c:\\program files\\daisytoolchain\\arm-none-eabi\\include\\c++\\10.2.1\\bits\\stl_tempbu
 513              		.file 25 "c:\\program files\\daisytoolchain\\arm-none-eabi\\include\\c++\\10.2.1\\bits\\predefined
 514              		.file 26 "c:\\program files\\daisytoolchain\\arm-none-eabi\\include\\sys\\_types.h"
 515              		.file 27 "c:\\program files\\daisytoolchain\\arm-none-eabi\\include\\sys\\reent.h"
 516              		.file 28 "c:\\program files\\daisytoolchain\\arm-none-eabi\\include\\sys\\lock.h"
 517              		.file 29 "c:\\program files\\daisytoolchain\\arm-none-eabi\\include\\math.h"
 518              		.file 30 "c:\\program files\\daisytoolchain\\arm-none-eabi\\include\\stdlib.h"
 519              		.file 31 "c:\\program files\\daisytoolchain\\arm-none-eabi\\include\\c++\\10.2.1\\math.h"
 520              		.file 32 "c:\\program files\\daisytoolchain\\arm-none-eabi\\include\\c++\\10.2.1\\stdlib.h"
 521              		.file 33 "../DaisyExamples/libDaisy/src/per/tim.h"
 522              		.file 34 "../DaisyExamples/libDaisy/src/sys/system.h"
 523              		.file 35 "../DaisyExamples/libDaisy/src/util/wav_format.h"
 524              		.file 36 "../DaisyExamples/libDaisy/src/dev/max11300.h"
 525              		.file 37 "../DaisyExamples/libDaisy/src/daisy_seed.h"
 526              		.file 38 "c:\\program files\\daisytoolchain\\lib\\gcc\\arm-none-eabi\\10.2.1\\include\\stdarg.h"
 527              		.file 39 "c:\\program files\\daisytoolchain\\arm-none-eabi\\include\\stdio.h"
 528              		.file 40 "c:\\program files\\daisytoolchain\\arm-none-eabi\\include\\string.h"
 529              		.file 41 "../DaisyExamples/DaisySP/Source/Control/adenv.h"
 530              		.file 42 "../DaisyExamples/DaisySP/Source/Utility/dsp.h"
 531              		.file 43 "c:\\program files\\daisytoolchain\\arm-none-eabi\\include\\wchar.h"
 532              		.file 44 "c:\\program files\\daisytoolchain\\arm-none-eabi\\include\\locale.h"
 533              		.file 45 "button.h"
 534              		.file 46 "<built-in>"
 535              		.file 47 "../DaisyExamples/libDaisy/src/dev/sr_595.h"
ARM GAS  C:\Users\papag\AppData\Local\Temp\cc2z0FHV.s 			page 18


DEFINED SYMBOLS
                            *ABS*:00000000 button.cpp
C:\Users\papag\AppData\Local\Temp\cc2z0FHV.s:17     .text._ZN6Button3NewEN5daisy3PinEmm:00000000 $t
C:\Users\papag\AppData\Local\Temp\cc2z0FHV.s:26     .text._ZN6Button3NewEN5daisy3PinEmm:00000000 _ZN6Button3NewEN5daisy3PinEmm
C:\Users\papag\AppData\Local\Temp\cc2z0FHV.s:181    .text._ZN6ButtonC2EN5daisy3PinEmm:00000000 $t
C:\Users\papag\AppData\Local\Temp\cc2z0FHV.s:189    .text._ZN6ButtonC2EN5daisy3PinEmm:00000000 _ZN6ButtonC2EN5daisy3PinEmm
C:\Users\papag\AppData\Local\Temp\cc2z0FHV.s:189    .text._ZN6ButtonC2EN5daisy3PinEmm:00000000 _ZN6ButtonC1EN5daisy3PinEmm
C:\Users\papag\AppData\Local\Temp\cc2z0FHV.s:334    .text._ZN6Button5CheckEv:00000000 $t
C:\Users\papag\AppData\Local\Temp\cc2z0FHV.s:342    .text._ZN6Button5CheckEv:00000000 _ZN6Button5CheckEv
C:\Users\papag\AppData\Local\Temp\cc2z0FHV.s:439    .text._ZN6Button10GetPressedEv:00000000 $t
C:\Users\papag\AppData\Local\Temp\cc2z0FHV.s:447    .text._ZN6Button10GetPressedEv:00000000 _ZN6Button10GetPressedEv
C:\Users\papag\AppData\Local\Temp\cc2z0FHV.s:465    .text._ZN6Button7GetLongEv:00000000 $t
C:\Users\papag\AppData\Local\Temp\cc2z0FHV.s:473    .text._ZN6Button7GetLongEv:00000000 _ZN6Button7GetLongEv

UNDEFINED SYMBOLS
_ZN5daisy4GPIO4InitENS_3PinENS0_4ModeENS0_4PullENS0_5SpeedE
_ZN5daisy4GPIO4ReadEv
_ZN5daisy6System6GetNowEv
