ARM GAS  C:\Users\papag\AppData\Local\Temp\cce3WeEa.s 			page 1


   1              		.cpu cortex-m7
   2              		.eabi_attribute 28, 1
   3              		.eabi_attribute 20, 1
   4              		.eabi_attribute 21, 1
   5              		.eabi_attribute 23, 3
   6              		.eabi_attribute 24, 1
   7              		.eabi_attribute 25, 1
   8              		.eabi_attribute 26, 1
   9              		.eabi_attribute 30, 2
  10              		.eabi_attribute 34, 1
  11              		.eabi_attribute 18, 4
  12              		.file	"dualLedButton.cpp"
  13              		.text
  14              	.Ltext0:
  15              		.cfi_sections	.debug_frame
  16              		.section	.text._ZN13DualLedButtonC2EN5daisy3PinEmmS1_S1_,"ax",%progbits
  17              		.align	1
  18              		.p2align 2,,3
  19              		.global	_ZN13DualLedButtonC2EN5daisy3PinEmmS1_S1_
  20              		.arch armv7e-m
  21              		.syntax unified
  22              		.thumb
  23              		.thumb_func
  24              		.fpu fpv5-d16
  26              	_ZN13DualLedButtonC2EN5daisy3PinEmmS1_S1_:
  27              	.LVL0:
  28              	.LFB4789:
  29              		.file 1 "dualLedButton.cpp"
   1:dualLedButton.cpp **** #include "daisy_seed.h"
   2:dualLedButton.cpp **** #include "daisysp.h"
   3:dualLedButton.cpp **** #include "button.h"
   4:dualLedButton.cpp **** #include "dualLedButton.h"
   5:dualLedButton.cpp **** 
   6:dualLedButton.cpp **** DualLedButton::DualLedButton(Pin pin, uint32_t shortTime, uint32_t longTime, Pin greenLedPin, Pin r
  30              		.loc 1 6 1 view -0
  31              		.cfi_startproc
  32              		@ args = 8, pretend = 0, frame = 8
  33              		@ frame_needed = 0, uses_anonymous_args = 0
  34              		.loc 1 6 1 is_stmt 0 view .LVU1
  35 0000 30B5     		push	{r4, r5, lr}
  36              		.cfi_def_cfa_offset 12
  37              		.cfi_offset 4, -12
  38              		.cfi_offset 5, -8
  39              		.cfi_offset 14, -4
  40 0002 85B0     		sub	sp, sp, #20
  41              		.cfi_def_cfa_offset 32
  42              		.loc 1 6 1 view .LVU2
  43 0004 0446     		mov	r4, r0
  44              	.LBB47:
  45              	.LBB48:
  46              	.LBB49:
  47              	.LBB50:
  48              		.file 2 "../DaisyExamples/libDaisy/src/per/gpio.h"
   1:../DaisyExamples/libDaisy/src/per/gpio.h **** #pragma once
   2:../DaisyExamples/libDaisy/src/per/gpio.h **** #ifndef DSY_GPIO_H
   3:../DaisyExamples/libDaisy/src/per/gpio.h **** #define DSY_GPIO_H
   4:../DaisyExamples/libDaisy/src/per/gpio.h **** #include "daisy_core.h"
ARM GAS  C:\Users\papag\AppData\Local\Temp\cce3WeEa.s 			page 2


   5:../DaisyExamples/libDaisy/src/per/gpio.h **** 
   6:../DaisyExamples/libDaisy/src/per/gpio.h **** #ifdef __cplusplus
   7:../DaisyExamples/libDaisy/src/per/gpio.h **** 
   8:../DaisyExamples/libDaisy/src/per/gpio.h **** namespace daisy
   9:../DaisyExamples/libDaisy/src/per/gpio.h **** {
  10:../DaisyExamples/libDaisy/src/per/gpio.h **** /** @brief General Purpose I/O control 
  11:../DaisyExamples/libDaisy/src/per/gpio.h ****  *  @details peripheral control over a single GPIO
  12:../DaisyExamples/libDaisy/src/per/gpio.h ****  *  @ingroup peripheral
  13:../DaisyExamples/libDaisy/src/per/gpio.h ****  *   
  14:../DaisyExamples/libDaisy/src/per/gpio.h ****  *  Button Input (with internal Pullup resistor)
  15:../DaisyExamples/libDaisy/src/per/gpio.h ****  *  @include GPIO_Input.cpp 
  16:../DaisyExamples/libDaisy/src/per/gpio.h ****  * 
  17:../DaisyExamples/libDaisy/src/per/gpio.h ****  *  Output Example (perfect for blinking an LED)
  18:../DaisyExamples/libDaisy/src/per/gpio.h ****  *  @include GPIO_Output.cpp
  19:../DaisyExamples/libDaisy/src/per/gpio.h ****  * 
  20:../DaisyExamples/libDaisy/src/per/gpio.h **** */
  21:../DaisyExamples/libDaisy/src/per/gpio.h **** class GPIO
  22:../DaisyExamples/libDaisy/src/per/gpio.h **** {
  23:../DaisyExamples/libDaisy/src/per/gpio.h ****   public:
  24:../DaisyExamples/libDaisy/src/per/gpio.h ****     /** @brief Mode of operation for the specified GPIO */
  25:../DaisyExamples/libDaisy/src/per/gpio.h ****     enum class Mode
  26:../DaisyExamples/libDaisy/src/per/gpio.h ****     {
  27:../DaisyExamples/libDaisy/src/per/gpio.h ****         INPUT,     /**< Input for reading state of pin */
  28:../DaisyExamples/libDaisy/src/per/gpio.h ****         OUTPUT,    /**< Output w/ push-pull configuration */
  29:../DaisyExamples/libDaisy/src/per/gpio.h ****         OUTPUT_OD, /**< Output w/ open-drain configuration */
  30:../DaisyExamples/libDaisy/src/per/gpio.h ****         ANALOG,    /**< Analog for connection to ADC or DAC peripheral */
  31:../DaisyExamples/libDaisy/src/per/gpio.h ****     };
  32:../DaisyExamples/libDaisy/src/per/gpio.h **** 
  33:../DaisyExamples/libDaisy/src/per/gpio.h ****     /** @brief Configures whether an internal Pull up or Pull down resistor is used. 
  34:../DaisyExamples/libDaisy/src/per/gpio.h ****      *  
  35:../DaisyExamples/libDaisy/src/per/gpio.h ****      * Internal Pull up/down resistors are typically 40k ohms, and will be between
  36:../DaisyExamples/libDaisy/src/per/gpio.h ****      * 30k and 50k
  37:../DaisyExamples/libDaisy/src/per/gpio.h ****      * 
  38:../DaisyExamples/libDaisy/src/per/gpio.h ****      * When the Pin is configured in Analog mode, the pull up/down resistors are
  39:../DaisyExamples/libDaisy/src/per/gpio.h ****      * disabled by hardware. 
  40:../DaisyExamples/libDaisy/src/per/gpio.h ****      */
  41:../DaisyExamples/libDaisy/src/per/gpio.h ****     enum class Pull
  42:../DaisyExamples/libDaisy/src/per/gpio.h ****     {
  43:../DaisyExamples/libDaisy/src/per/gpio.h ****         NOPULL,   /**< No pull up resistor */
  44:../DaisyExamples/libDaisy/src/per/gpio.h ****         PULLUP,   /**< Internal pull up enabled */
  45:../DaisyExamples/libDaisy/src/per/gpio.h ****         PULLDOWN, /**< Internal pull down enabled*/
  46:../DaisyExamples/libDaisy/src/per/gpio.h ****     };
  47:../DaisyExamples/libDaisy/src/per/gpio.h **** 
  48:../DaisyExamples/libDaisy/src/per/gpio.h ****     /** @brief Output speed controls the drive strength, and slew rate of the pin */
  49:../DaisyExamples/libDaisy/src/per/gpio.h ****     enum class Speed
  50:../DaisyExamples/libDaisy/src/per/gpio.h ****     {
  51:../DaisyExamples/libDaisy/src/per/gpio.h ****         LOW,
  52:../DaisyExamples/libDaisy/src/per/gpio.h ****         MEDIUM,
  53:../DaisyExamples/libDaisy/src/per/gpio.h ****         HIGH,
  54:../DaisyExamples/libDaisy/src/per/gpio.h ****         VERY_HIGH,
  55:../DaisyExamples/libDaisy/src/per/gpio.h ****     };
  56:../DaisyExamples/libDaisy/src/per/gpio.h **** 
  57:../DaisyExamples/libDaisy/src/per/gpio.h ****     /** @brief Configuration for a given GPIO */
  58:../DaisyExamples/libDaisy/src/per/gpio.h ****     struct Config
  59:../DaisyExamples/libDaisy/src/per/gpio.h ****     {
  60:../DaisyExamples/libDaisy/src/per/gpio.h ****         Pin   pin;
  61:../DaisyExamples/libDaisy/src/per/gpio.h ****         Mode  mode;
ARM GAS  C:\Users\papag\AppData\Local\Temp\cce3WeEa.s 			page 3


  62:../DaisyExamples/libDaisy/src/per/gpio.h ****         Pull  pull;
  63:../DaisyExamples/libDaisy/src/per/gpio.h ****         Speed speed;
  64:../DaisyExamples/libDaisy/src/per/gpio.h **** 
  65:../DaisyExamples/libDaisy/src/per/gpio.h ****         /** Constructor with no arguments will prepare an invalid GPIO set as
  66:../DaisyExamples/libDaisy/src/per/gpio.h ****          *  an input, with no pullup. 
  67:../DaisyExamples/libDaisy/src/per/gpio.h ****          */
  68:../DaisyExamples/libDaisy/src/per/gpio.h ****         Config()
  69:../DaisyExamples/libDaisy/src/per/gpio.h ****         : pin(), mode(Mode::INPUT), pull(Pull::NOPULL), speed(Speed::LOW)
  49              		.loc 2 69 73 view .LVU3
  50 0006 0025     		movs	r5, #0
  51              	.LBE50:
  52              	.LBE49:
  53              	.LBE48:
  54              	.LBE47:
  55              		.loc 1 6 1 view .LVU4
  56 0008 ADF80C10 		strh	r1, [sp, #12]	@ movhi
  57              	.LBB89:
   7:dualLedButton.cpp **** : Button(pin, shortTime, longTime)
  58              		.loc 1 7 34 view .LVU5
  59 000c 0399     		ldr	r1, [sp, #12]
  60 000e FFF7FEFF 		bl	_ZN6ButtonC2EN5daisy3PinEmm
  61              	.LVL1:
  62              	.LBB67:
  63              	.LBI48:
  70:../DaisyExamples/libDaisy/src/per/gpio.h ****         {
  71:../DaisyExamples/libDaisy/src/per/gpio.h ****         }
  72:../DaisyExamples/libDaisy/src/per/gpio.h ****     };
  73:../DaisyExamples/libDaisy/src/per/gpio.h **** 
  74:../DaisyExamples/libDaisy/src/per/gpio.h ****     GPIO() {}
  64              		.loc 2 74 5 is_stmt 1 view .LVU6
  65              	.LBB62:
  66              	.LBI49:
  68:../DaisyExamples/libDaisy/src/per/gpio.h ****         : pin(), mode(Mode::INPUT), pull(Pull::NOPULL), speed(Speed::LOW)
  67              		.loc 2 68 9 view .LVU7
  68              	.LBB57:
  69              	.LBB51:
  70              	.LBI51:
  71              		.file 3 "../DaisyExamples/libDaisy/src/daisy_core.h"
   1:../DaisyExamples/libDaisy/src/daisy_core.h **** #pragma once
   2:../DaisyExamples/libDaisy/src/daisy_core.h **** #ifndef DSY_CORE_HW_H
   3:../DaisyExamples/libDaisy/src/daisy_core.h **** #define DSY_CORE_HW_H /**< & */
   4:../DaisyExamples/libDaisy/src/daisy_core.h **** #include <stdint.h>
   5:../DaisyExamples/libDaisy/src/daisy_core.h **** #include <stdlib.h>
   6:../DaisyExamples/libDaisy/src/daisy_core.h **** 
   7:../DaisyExamples/libDaisy/src/daisy_core.h **** #if defined(_MSC_VER)
   8:../DaisyExamples/libDaisy/src/daisy_core.h **** #define FORCE_INLINE __forceinline /**< & */
   9:../DaisyExamples/libDaisy/src/daisy_core.h **** #elif defined(__clang__)
  10:../DaisyExamples/libDaisy/src/daisy_core.h **** #define FORCE_INLINE inline __attribute__((always_inline)) /**< & */
  11:../DaisyExamples/libDaisy/src/daisy_core.h **** #pragma clang diagnostic ignored "-Wduplicate-decl-specifier"
  12:../DaisyExamples/libDaisy/src/daisy_core.h **** #elif defined(__GNUC__)
  13:../DaisyExamples/libDaisy/src/daisy_core.h **** #define FORCE_INLINE inline __attribute__((always_inline)) /**< & */
  14:../DaisyExamples/libDaisy/src/daisy_core.h **** #else
  15:../DaisyExamples/libDaisy/src/daisy_core.h **** #error unknown compiler
  16:../DaisyExamples/libDaisy/src/daisy_core.h **** #endif
  17:../DaisyExamples/libDaisy/src/daisy_core.h **** 
  18:../DaisyExamples/libDaisy/src/daisy_core.h **** /** @addtogroup utility
  19:../DaisyExamples/libDaisy/src/daisy_core.h ****     @{
ARM GAS  C:\Users\papag\AppData\Local\Temp\cce3WeEa.s 			page 4


  20:../DaisyExamples/libDaisy/src/daisy_core.h **** */
  21:../DaisyExamples/libDaisy/src/daisy_core.h **** 
  22:../DaisyExamples/libDaisy/src/daisy_core.h **** /** Macro for area of memory that is configured as cacheless
  23:../DaisyExamples/libDaisy/src/daisy_core.h **** This should be used primarily for DMA buffers, and the like.
  24:../DaisyExamples/libDaisy/src/daisy_core.h **** */
  25:../DaisyExamples/libDaisy/src/daisy_core.h **** #define DMA_BUFFER_MEM_SECTION __attribute__((section(".sram1_bss")))
  26:../DaisyExamples/libDaisy/src/daisy_core.h **** /** 
  27:../DaisyExamples/libDaisy/src/daisy_core.h **** THE DTCM RAM section is also non-cached. However, is not suitable 
  28:../DaisyExamples/libDaisy/src/daisy_core.h **** for DMA transfers. Performance is on par with internal SRAM w/ 
  29:../DaisyExamples/libDaisy/src/daisy_core.h **** cache enabled.
  30:../DaisyExamples/libDaisy/src/daisy_core.h **** */
  31:../DaisyExamples/libDaisy/src/daisy_core.h **** #define DTCM_MEM_SECTION __attribute__((section(".dtcmram_bss")))
  32:../DaisyExamples/libDaisy/src/daisy_core.h **** 
  33:../DaisyExamples/libDaisy/src/daisy_core.h **** #define FBIPMAX 0.999985f             /**< close to 1.0f-LSB at 16 bit */
  34:../DaisyExamples/libDaisy/src/daisy_core.h **** #define FBIPMIN (-FBIPMAX)            /**< - (1 - LSB) */
  35:../DaisyExamples/libDaisy/src/daisy_core.h **** #define U82F_SCALE 0.0078740f         /**< 1 / 127 */
  36:../DaisyExamples/libDaisy/src/daisy_core.h **** #define F2U8_SCALE 127.0f             /**< 128 - 1 */
  37:../DaisyExamples/libDaisy/src/daisy_core.h **** #define S82F_SCALE 0.0078125f         /**< 1 / (2**7) */
  38:../DaisyExamples/libDaisy/src/daisy_core.h **** #define F2S8_SCALE 127.0f             /**< (2 ** 7) - 1 */
  39:../DaisyExamples/libDaisy/src/daisy_core.h **** #define S162F_SCALE 3.0517578125e-05f /**< 1 / (2** 15) */
  40:../DaisyExamples/libDaisy/src/daisy_core.h **** #define F2S16_SCALE 32767.0f          /**< (2 ** 15) - 1 */
  41:../DaisyExamples/libDaisy/src/daisy_core.h **** #define F2S24_SCALE 8388608.0f        /**< 2 ** 23 */
  42:../DaisyExamples/libDaisy/src/daisy_core.h **** #define S242F_SCALE 1.192092896e-07f  /**< 1 / (2 ** 23) */
  43:../DaisyExamples/libDaisy/src/daisy_core.h **** #define S24SIGN 0x800000              /**< 2 ** 23 */
  44:../DaisyExamples/libDaisy/src/daisy_core.h **** #define S322F_SCALE 4.6566129e-10f    /**< 1 / (2** 31) */
  45:../DaisyExamples/libDaisy/src/daisy_core.h **** #define F2S32_SCALE 2147483647.f      /**< (2 ** 31) - 1 */
  46:../DaisyExamples/libDaisy/src/daisy_core.h **** 
  47:../DaisyExamples/libDaisy/src/daisy_core.h **** 
  48:../DaisyExamples/libDaisy/src/daisy_core.h **** /** shorthand macro for simplifying the reading of the left 
  49:../DaisyExamples/libDaisy/src/daisy_core.h ****  *  channel of a non-interleaved output buffer named out */
  50:../DaisyExamples/libDaisy/src/daisy_core.h **** #define OUT_L out[0]
  51:../DaisyExamples/libDaisy/src/daisy_core.h **** 
  52:../DaisyExamples/libDaisy/src/daisy_core.h **** /** shorthand macro for simplifying the reading of the right 
  53:../DaisyExamples/libDaisy/src/daisy_core.h ****  *  channel of a non-interleaved output buffer named out */
  54:../DaisyExamples/libDaisy/src/daisy_core.h **** #define OUT_R out[1]
  55:../DaisyExamples/libDaisy/src/daisy_core.h **** 
  56:../DaisyExamples/libDaisy/src/daisy_core.h **** /** shorthand macro for simplifying the reading of the left 
  57:../DaisyExamples/libDaisy/src/daisy_core.h ****  *  channel of a non-interleaved input buffer named in */
  58:../DaisyExamples/libDaisy/src/daisy_core.h **** #define IN_L in[0]
  59:../DaisyExamples/libDaisy/src/daisy_core.h **** 
  60:../DaisyExamples/libDaisy/src/daisy_core.h **** /** shorthand macro for simplifying the reading of the right 
  61:../DaisyExamples/libDaisy/src/daisy_core.h ****  *  channel of a non-interleaved input buffer named in */
  62:../DaisyExamples/libDaisy/src/daisy_core.h **** #define IN_R in[1]
  63:../DaisyExamples/libDaisy/src/daisy_core.h **** 
  64:../DaisyExamples/libDaisy/src/daisy_core.h **** /** 
  65:../DaisyExamples/libDaisy/src/daisy_core.h ****     Computes cube.
  66:../DaisyExamples/libDaisy/src/daisy_core.h ****     \param x Number to be cubed
  67:../DaisyExamples/libDaisy/src/daisy_core.h ****     \return x ^ 3
  68:../DaisyExamples/libDaisy/src/daisy_core.h **** */
  69:../DaisyExamples/libDaisy/src/daisy_core.h **** FORCE_INLINE float cube(float x)
  70:../DaisyExamples/libDaisy/src/daisy_core.h **** {
  71:../DaisyExamples/libDaisy/src/daisy_core.h ****     return (x * x) * x;
  72:../DaisyExamples/libDaisy/src/daisy_core.h **** }
  73:../DaisyExamples/libDaisy/src/daisy_core.h **** 
  74:../DaisyExamples/libDaisy/src/daisy_core.h **** /** 
  75:../DaisyExamples/libDaisy/src/daisy_core.h ****     Converts unsigned 8-bit to float
  76:../DaisyExamples/libDaisy/src/daisy_core.h ****     \param x Number to be scaled.
ARM GAS  C:\Users\papag\AppData\Local\Temp\cce3WeEa.s 			page 5


  77:../DaisyExamples/libDaisy/src/daisy_core.h ****     \return Scaled number.
  78:../DaisyExamples/libDaisy/src/daisy_core.h **** */
  79:../DaisyExamples/libDaisy/src/daisy_core.h **** FORCE_INLINE float u82f(uint8_t x)
  80:../DaisyExamples/libDaisy/src/daisy_core.h **** {
  81:../DaisyExamples/libDaisy/src/daisy_core.h ****     return ((float)x - 127.f) * U82F_SCALE;
  82:../DaisyExamples/libDaisy/src/daisy_core.h **** }
  83:../DaisyExamples/libDaisy/src/daisy_core.h **** 
  84:../DaisyExamples/libDaisy/src/daisy_core.h **** /**
  85:../DaisyExamples/libDaisy/src/daisy_core.h ****     Converts float to unsigned 8-bit
  86:../DaisyExamples/libDaisy/src/daisy_core.h **** */
  87:../DaisyExamples/libDaisy/src/daisy_core.h **** FORCE_INLINE uint8_t f2u8(float x)
  88:../DaisyExamples/libDaisy/src/daisy_core.h **** {
  89:../DaisyExamples/libDaisy/src/daisy_core.h ****     x = x <= FBIPMIN ? FBIPMIN : x;
  90:../DaisyExamples/libDaisy/src/daisy_core.h ****     x = x >= FBIPMAX ? FBIPMAX : x;
  91:../DaisyExamples/libDaisy/src/daisy_core.h ****     return (uint8_t)((x * F2U8_SCALE) + F2U8_SCALE);
  92:../DaisyExamples/libDaisy/src/daisy_core.h **** }
  93:../DaisyExamples/libDaisy/src/daisy_core.h **** 
  94:../DaisyExamples/libDaisy/src/daisy_core.h **** 
  95:../DaisyExamples/libDaisy/src/daisy_core.h **** /** 
  96:../DaisyExamples/libDaisy/src/daisy_core.h ****     Converts Signed 8-bit to float
  97:../DaisyExamples/libDaisy/src/daisy_core.h ****     \param x Number to be scaled.
  98:../DaisyExamples/libDaisy/src/daisy_core.h ****     \return Scaled number.
  99:../DaisyExamples/libDaisy/src/daisy_core.h **** */
 100:../DaisyExamples/libDaisy/src/daisy_core.h **** FORCE_INLINE float s82f(int8_t x)
 101:../DaisyExamples/libDaisy/src/daisy_core.h **** {
 102:../DaisyExamples/libDaisy/src/daisy_core.h ****     return (float)x * S82F_SCALE;
 103:../DaisyExamples/libDaisy/src/daisy_core.h **** }
 104:../DaisyExamples/libDaisy/src/daisy_core.h **** 
 105:../DaisyExamples/libDaisy/src/daisy_core.h **** /**
 106:../DaisyExamples/libDaisy/src/daisy_core.h ****     Converts float to Signed 8-bit
 107:../DaisyExamples/libDaisy/src/daisy_core.h **** */
 108:../DaisyExamples/libDaisy/src/daisy_core.h **** FORCE_INLINE int8_t f2s8(float x)
 109:../DaisyExamples/libDaisy/src/daisy_core.h **** {
 110:../DaisyExamples/libDaisy/src/daisy_core.h ****     x = x <= FBIPMIN ? FBIPMIN : x;
 111:../DaisyExamples/libDaisy/src/daisy_core.h ****     x = x >= FBIPMAX ? FBIPMAX : x;
 112:../DaisyExamples/libDaisy/src/daisy_core.h ****     return (int32_t)(x * F2S8_SCALE);
 113:../DaisyExamples/libDaisy/src/daisy_core.h **** }
 114:../DaisyExamples/libDaisy/src/daisy_core.h **** 
 115:../DaisyExamples/libDaisy/src/daisy_core.h **** /** 
 116:../DaisyExamples/libDaisy/src/daisy_core.h ****     Converts Signed 16-bit to float
 117:../DaisyExamples/libDaisy/src/daisy_core.h ****     \param x Number to be scaled.
 118:../DaisyExamples/libDaisy/src/daisy_core.h ****     \return Scaled number.
 119:../DaisyExamples/libDaisy/src/daisy_core.h **** */
 120:../DaisyExamples/libDaisy/src/daisy_core.h **** FORCE_INLINE float s162f(int16_t x)
 121:../DaisyExamples/libDaisy/src/daisy_core.h **** {
 122:../DaisyExamples/libDaisy/src/daisy_core.h ****     return (float)x * S162F_SCALE;
 123:../DaisyExamples/libDaisy/src/daisy_core.h **** }
 124:../DaisyExamples/libDaisy/src/daisy_core.h **** 
 125:../DaisyExamples/libDaisy/src/daisy_core.h **** /**
 126:../DaisyExamples/libDaisy/src/daisy_core.h ****     Converts float to Signed 16-bit
 127:../DaisyExamples/libDaisy/src/daisy_core.h **** */
 128:../DaisyExamples/libDaisy/src/daisy_core.h **** FORCE_INLINE int16_t f2s16(float x)
 129:../DaisyExamples/libDaisy/src/daisy_core.h **** {
 130:../DaisyExamples/libDaisy/src/daisy_core.h ****     x = x <= FBIPMIN ? FBIPMIN : x;
 131:../DaisyExamples/libDaisy/src/daisy_core.h ****     x = x >= FBIPMAX ? FBIPMAX : x;
 132:../DaisyExamples/libDaisy/src/daisy_core.h ****     return (int32_t)(x * F2S16_SCALE);
 133:../DaisyExamples/libDaisy/src/daisy_core.h **** }
ARM GAS  C:\Users\papag\AppData\Local\Temp\cce3WeEa.s 			page 6


 134:../DaisyExamples/libDaisy/src/daisy_core.h **** 
 135:../DaisyExamples/libDaisy/src/daisy_core.h **** /**
 136:../DaisyExamples/libDaisy/src/daisy_core.h ****     Converts Signed 24-bit to float
 137:../DaisyExamples/libDaisy/src/daisy_core.h ****  */
 138:../DaisyExamples/libDaisy/src/daisy_core.h **** FORCE_INLINE float s242f(int32_t x)
 139:../DaisyExamples/libDaisy/src/daisy_core.h **** {
 140:../DaisyExamples/libDaisy/src/daisy_core.h ****     x = (x ^ S24SIGN) - S24SIGN; //sign extend aka ((x<<8)>>8)
 141:../DaisyExamples/libDaisy/src/daisy_core.h ****     return (float)x * S242F_SCALE;
 142:../DaisyExamples/libDaisy/src/daisy_core.h **** }
 143:../DaisyExamples/libDaisy/src/daisy_core.h **** /**
 144:../DaisyExamples/libDaisy/src/daisy_core.h ****     Converts float to Signed 24-bit
 145:../DaisyExamples/libDaisy/src/daisy_core.h ****  */
 146:../DaisyExamples/libDaisy/src/daisy_core.h **** FORCE_INLINE int32_t f2s24(float x)
 147:../DaisyExamples/libDaisy/src/daisy_core.h **** {
 148:../DaisyExamples/libDaisy/src/daisy_core.h ****     x = x <= FBIPMIN ? FBIPMIN : x;
 149:../DaisyExamples/libDaisy/src/daisy_core.h ****     x = x >= FBIPMAX ? FBIPMAX : x;
 150:../DaisyExamples/libDaisy/src/daisy_core.h ****     return (int32_t)(x * F2S24_SCALE);
 151:../DaisyExamples/libDaisy/src/daisy_core.h **** }
 152:../DaisyExamples/libDaisy/src/daisy_core.h **** 
 153:../DaisyExamples/libDaisy/src/daisy_core.h **** /**
 154:../DaisyExamples/libDaisy/src/daisy_core.h ****     Converts Signed 32-bit to float
 155:../DaisyExamples/libDaisy/src/daisy_core.h ****  */
 156:../DaisyExamples/libDaisy/src/daisy_core.h **** FORCE_INLINE float s322f(int32_t x)
 157:../DaisyExamples/libDaisy/src/daisy_core.h **** {
 158:../DaisyExamples/libDaisy/src/daisy_core.h ****     return (float)x * S322F_SCALE;
 159:../DaisyExamples/libDaisy/src/daisy_core.h **** }
 160:../DaisyExamples/libDaisy/src/daisy_core.h **** /**
 161:../DaisyExamples/libDaisy/src/daisy_core.h ****     Converts float to Signed 24-bit
 162:../DaisyExamples/libDaisy/src/daisy_core.h ****  */
 163:../DaisyExamples/libDaisy/src/daisy_core.h **** FORCE_INLINE int32_t f2s32(float x)
 164:../DaisyExamples/libDaisy/src/daisy_core.h **** {
 165:../DaisyExamples/libDaisy/src/daisy_core.h ****     x = x <= FBIPMIN ? FBIPMIN : x;
 166:../DaisyExamples/libDaisy/src/daisy_core.h ****     x = x >= FBIPMAX ? FBIPMAX : x;
 167:../DaisyExamples/libDaisy/src/daisy_core.h ****     return (int32_t)(x * F2S32_SCALE);
 168:../DaisyExamples/libDaisy/src/daisy_core.h **** }
 169:../DaisyExamples/libDaisy/src/daisy_core.h **** 
 170:../DaisyExamples/libDaisy/src/daisy_core.h **** 
 171:../DaisyExamples/libDaisy/src/daisy_core.h **** /** Enums and a simple struct for defining a hardware pin on the MCU
 172:../DaisyExamples/libDaisy/src/daisy_core.h ****  *  These correlate with the stm32 datasheet, and are used to configure
 173:../DaisyExamples/libDaisy/src/daisy_core.h ****  *  the hardware.
 174:../DaisyExamples/libDaisy/src/daisy_core.h ****  * 
 175:../DaisyExamples/libDaisy/src/daisy_core.h ****  *  This along with the dsy_gpio_pin class should no longer be used.
 176:../DaisyExamples/libDaisy/src/daisy_core.h ****  *  They are available for backwards compatability. 
 177:../DaisyExamples/libDaisy/src/daisy_core.h ****  * 
 178:../DaisyExamples/libDaisy/src/daisy_core.h ****  *  Please use GPIOPort enum and the Pin struct instead.
 179:../DaisyExamples/libDaisy/src/daisy_core.h ****  */
 180:../DaisyExamples/libDaisy/src/daisy_core.h **** typedef enum
 181:../DaisyExamples/libDaisy/src/daisy_core.h **** {
 182:../DaisyExamples/libDaisy/src/daisy_core.h ****     DSY_GPIOA, /**< & */
 183:../DaisyExamples/libDaisy/src/daisy_core.h ****     DSY_GPIOB, /**< & */
 184:../DaisyExamples/libDaisy/src/daisy_core.h ****     DSY_GPIOC, /**< & */
 185:../DaisyExamples/libDaisy/src/daisy_core.h ****     DSY_GPIOD, /**< & */
 186:../DaisyExamples/libDaisy/src/daisy_core.h ****     DSY_GPIOE, /**< & */
 187:../DaisyExamples/libDaisy/src/daisy_core.h ****     DSY_GPIOF, /**< & */
 188:../DaisyExamples/libDaisy/src/daisy_core.h ****     DSY_GPIOG, /**< & */
 189:../DaisyExamples/libDaisy/src/daisy_core.h ****     DSY_GPIOH, /**< & */
 190:../DaisyExamples/libDaisy/src/daisy_core.h ****     DSY_GPIOI, /**< & */
ARM GAS  C:\Users\papag\AppData\Local\Temp\cce3WeEa.s 			page 7


 191:../DaisyExamples/libDaisy/src/daisy_core.h ****     DSY_GPIOJ, /**< & */
 192:../DaisyExamples/libDaisy/src/daisy_core.h ****     DSY_GPIOK, /**< & */
 193:../DaisyExamples/libDaisy/src/daisy_core.h ****     DSY_GPIOX, /** This is a non-existant port for unsupported bits of hardware. */
 194:../DaisyExamples/libDaisy/src/daisy_core.h ****     DSY_GPIO_LAST, /** Final enum member */
 195:../DaisyExamples/libDaisy/src/daisy_core.h **** } dsy_gpio_port;
 196:../DaisyExamples/libDaisy/src/daisy_core.h **** 
 197:../DaisyExamples/libDaisy/src/daisy_core.h **** /** Hardware define pins 
 198:../DaisyExamples/libDaisy/src/daisy_core.h ****  *  
 199:../DaisyExamples/libDaisy/src/daisy_core.h ****  *  The dsy_gpio_pin struct should no longer be used, and is only available for
 200:../DaisyExamples/libDaisy/src/daisy_core.h ****  *  backwards compatability.
 201:../DaisyExamples/libDaisy/src/daisy_core.h ****  * 
 202:../DaisyExamples/libDaisy/src/daisy_core.h ****  *  Please use Pin struct instead.
 203:../DaisyExamples/libDaisy/src/daisy_core.h ****  */
 204:../DaisyExamples/libDaisy/src/daisy_core.h **** typedef struct
 205:../DaisyExamples/libDaisy/src/daisy_core.h **** {
 206:../DaisyExamples/libDaisy/src/daisy_core.h ****     dsy_gpio_port port; /**< & */
 207:../DaisyExamples/libDaisy/src/daisy_core.h ****     uint8_t       pin;  /**< number 0-15 */
 208:../DaisyExamples/libDaisy/src/daisy_core.h **** } dsy_gpio_pin;
 209:../DaisyExamples/libDaisy/src/daisy_core.h **** 
 210:../DaisyExamples/libDaisy/src/daisy_core.h **** /** Helper for creating pins from port/pin combos easily
 211:../DaisyExamples/libDaisy/src/daisy_core.h ****  * 
 212:../DaisyExamples/libDaisy/src/daisy_core.h ****  *  The dsy_gpio_pin struct should no longer be used, and is only available for
 213:../DaisyExamples/libDaisy/src/daisy_core.h ****  *  backwards compatability.
 214:../DaisyExamples/libDaisy/src/daisy_core.h ****  * 
 215:../DaisyExamples/libDaisy/src/daisy_core.h ****  *  Please use Pin struct instead.
 216:../DaisyExamples/libDaisy/src/daisy_core.h **** */
 217:../DaisyExamples/libDaisy/src/daisy_core.h **** FORCE_INLINE dsy_gpio_pin dsy_pin(dsy_gpio_port port, uint8_t pin)
 218:../DaisyExamples/libDaisy/src/daisy_core.h **** {
 219:../DaisyExamples/libDaisy/src/daisy_core.h ****     dsy_gpio_pin p;
 220:../DaisyExamples/libDaisy/src/daisy_core.h ****     p.port = port;
 221:../DaisyExamples/libDaisy/src/daisy_core.h ****     p.pin  = pin;
 222:../DaisyExamples/libDaisy/src/daisy_core.h ****     return p;
 223:../DaisyExamples/libDaisy/src/daisy_core.h **** }
 224:../DaisyExamples/libDaisy/src/daisy_core.h **** 
 225:../DaisyExamples/libDaisy/src/daisy_core.h **** /** Helper for testing sameness of two dsy_gpio_pins
 226:../DaisyExamples/libDaisy/src/daisy_core.h ****  *  \return    1 if same, 0 if different
 227:../DaisyExamples/libDaisy/src/daisy_core.h ****  * 
 228:../DaisyExamples/libDaisy/src/daisy_core.h ****  *  The dsy_gpio_pin struct should no longer be used, and is only available for
 229:../DaisyExamples/libDaisy/src/daisy_core.h ****  *  backwards compatability.
 230:../DaisyExamples/libDaisy/src/daisy_core.h ****  * 
 231:../DaisyExamples/libDaisy/src/daisy_core.h ****  *  Please use Pin struct instead.
 232:../DaisyExamples/libDaisy/src/daisy_core.h ****  */
 233:../DaisyExamples/libDaisy/src/daisy_core.h **** FORCE_INLINE uint8_t dsy_pin_cmp(dsy_gpio_pin *a, dsy_gpio_pin *b)
 234:../DaisyExamples/libDaisy/src/daisy_core.h **** {
 235:../DaisyExamples/libDaisy/src/daisy_core.h ****     return ((a->port == b->port) && (a->pin == b->pin));
 236:../DaisyExamples/libDaisy/src/daisy_core.h **** }
 237:../DaisyExamples/libDaisy/src/daisy_core.h **** 
 238:../DaisyExamples/libDaisy/src/daisy_core.h **** #ifdef __cplusplus
 239:../DaisyExamples/libDaisy/src/daisy_core.h **** 
 240:../DaisyExamples/libDaisy/src/daisy_core.h **** namespace daisy
 241:../DaisyExamples/libDaisy/src/daisy_core.h **** {
 242:../DaisyExamples/libDaisy/src/daisy_core.h **** /** @brief GPIO Port names */
 243:../DaisyExamples/libDaisy/src/daisy_core.h **** enum GPIOPort
 244:../DaisyExamples/libDaisy/src/daisy_core.h **** {
 245:../DaisyExamples/libDaisy/src/daisy_core.h ****     PORTA, /**< Port A */
 246:../DaisyExamples/libDaisy/src/daisy_core.h ****     PORTB, /**< Port B */
 247:../DaisyExamples/libDaisy/src/daisy_core.h ****     PORTC, /**< Port C */
ARM GAS  C:\Users\papag\AppData\Local\Temp\cce3WeEa.s 			page 8


 248:../DaisyExamples/libDaisy/src/daisy_core.h ****     PORTD, /**< Port D */
 249:../DaisyExamples/libDaisy/src/daisy_core.h ****     PORTE, /**< Port E */
 250:../DaisyExamples/libDaisy/src/daisy_core.h ****     PORTF, /**< Port F */
 251:../DaisyExamples/libDaisy/src/daisy_core.h ****     PORTG, /**< Port G */
 252:../DaisyExamples/libDaisy/src/daisy_core.h ****     PORTH, /**< Port H */
 253:../DaisyExamples/libDaisy/src/daisy_core.h ****     PORTI, /**< Port I */
 254:../DaisyExamples/libDaisy/src/daisy_core.h ****     PORTJ, /**< Port J */
 255:../DaisyExamples/libDaisy/src/daisy_core.h ****     PORTK, /**< Port K */
 256:../DaisyExamples/libDaisy/src/daisy_core.h ****     PORTX, /**< Used as a dummy port to signal an invalid pin. */
 257:../DaisyExamples/libDaisy/src/daisy_core.h **** };
 258:../DaisyExamples/libDaisy/src/daisy_core.h **** 
 259:../DaisyExamples/libDaisy/src/daisy_core.h **** /** @brief representation of hardware port/pin combination */
 260:../DaisyExamples/libDaisy/src/daisy_core.h **** struct Pin
 261:../DaisyExamples/libDaisy/src/daisy_core.h **** {
 262:../DaisyExamples/libDaisy/src/daisy_core.h ****     GPIOPort port;
 263:../DaisyExamples/libDaisy/src/daisy_core.h ****     uint8_t  pin;
 264:../DaisyExamples/libDaisy/src/daisy_core.h **** 
 265:../DaisyExamples/libDaisy/src/daisy_core.h ****     /** @brief Constructor creates a valid pin. 
 266:../DaisyExamples/libDaisy/src/daisy_core.h ****      *  @param pt GPIOPort between PA, and PK corresponding to STM32 Port.
 267:../DaisyExamples/libDaisy/src/daisy_core.h ****      *  @param pn pin number in range of 0-15
 268:../DaisyExamples/libDaisy/src/daisy_core.h ****     */
 269:../DaisyExamples/libDaisy/src/daisy_core.h ****     constexpr Pin(const GPIOPort pt, const uint8_t pn) : port(pt), pin(pn) {}
 270:../DaisyExamples/libDaisy/src/daisy_core.h **** 
 271:../DaisyExamples/libDaisy/src/daisy_core.h ****     /** @brief Basic Constructor creates an invalid Pin object */
 272:../DaisyExamples/libDaisy/src/daisy_core.h ****     constexpr Pin() : port(PORTX), pin(255) {}
  72              		.loc 3 272 15 view .LVU8
  73              	.LBB52:
  74              		.loc 3 272 43 is_stmt 0 view .LVU9
  75 0012 0B21     		movs	r1, #11
  76 0014 FF22     		movs	r2, #255
  77              	.LBE52:
  78              	.LBE51:
  79              	.LBE57:
  80              	.LBE62:
  81              	.LBE67:
   8:dualLedButton.cpp **** {
   9:dualLedButton.cpp ****     redGpio.Init(redLedPin, GPIO::Mode::OUTPUT);
  82              		.loc 1 9 17 view .LVU10
  83 0016 2B46     		mov	r3, r5
  84              	.LBB68:
  85              	.LBB63:
  86              	.LBB58:
  87              	.LBB55:
  88              	.LBB53:
  89              		.loc 3 272 43 view .LVU11
  90 0018 84F82410 		strb	r1, [r4, #36]
  91              	.LBE53:
  92              	.LBE55:
  93              	.LBE58:
  94              	.LBE63:
  95              	.LBE68:
  96              		.loc 1 9 17 view .LVU12
  97 001c 04F12400 		add	r0, r4, #36
  98              	.LVL2:
  99              	.LBB69:
 100              	.LBB64:
 101              	.LBB59:
ARM GAS  C:\Users\papag\AppData\Local\Temp\cce3WeEa.s 			page 9


 102              	.LBB56:
 103              	.LBB54:
 104              		.loc 3 272 43 view .LVU13
 105 0020 84F82520 		strb	r2, [r4, #37]
 106              	.LVL3:
 107              		.loc 3 272 43 view .LVU14
 108              	.LBE54:
 109              	.LBE56:
 110              	.LBE59:
 111              	.LBE64:
 112              	.LBE69:
 113              	.LBB70:
 114              	.LBB71:
 115              	.LBB72:
 116              	.LBB73:
 117              	.LBB74:
 118 0024 84F83920 		strb	r2, [r4, #57]
 119              	.LBE74:
 120              	.LBE73:
 121              	.LBE72:
 122              	.LBE71:
 123              	.LBE70:
 124              		.loc 1 9 17 view .LVU15
 125 0028 0122     		movs	r2, #1
 126              	.LBB84:
 127              	.LBB81:
 128              	.LBB78:
 129              	.LBB76:
 130              	.LBB75:
 131              		.loc 3 272 43 view .LVU16
 132 002a 84F83810 		strb	r1, [r4, #56]
 133              	.LBE75:
 134              	.LBE76:
 135              	.LBE78:
 136              	.LBE81:
 137              	.LBE84:
 138              		.loc 1 9 17 view .LVU17
 139 002e 0999     		ldr	r1, [sp, #36]
 140              	.LBB85:
 141              	.LBB65:
 142              	.LBB60:
  69:../DaisyExamples/libDaisy/src/per/gpio.h ****         {
 143              		.loc 2 69 73 view .LVU18
 144 0030 2563     		str	r5, [r4, #48]
 145              	.LVL4:
  69:../DaisyExamples/libDaisy/src/per/gpio.h ****         {
 146              		.loc 2 69 73 view .LVU19
 147              	.LBE60:
 148              	.LBE65:
 149              	.LBE85:
 150              	.LBB86:
 151              	.LBI70:
 152              		.loc 2 74 5 is_stmt 1 view .LVU20
 153              	.LBB82:
 154              	.LBI71:
  68:../DaisyExamples/libDaisy/src/per/gpio.h ****         : pin(), mode(Mode::INPUT), pull(Pull::NOPULL), speed(Speed::LOW)
 155              		.loc 2 68 9 view .LVU21
ARM GAS  C:\Users\papag\AppData\Local\Temp\cce3WeEa.s 			page 10


 156              	.LBB79:
 157              	.LBB77:
 158              	.LBI73:
 159              		.loc 3 272 15 view .LVU22
 160              		.loc 3 272 15 is_stmt 0 view .LVU23
 161              	.LBE77:
  69:../DaisyExamples/libDaisy/src/per/gpio.h ****         {
 162              		.loc 2 69 73 view .LVU24
 163 0032 6564     		str	r5, [r4, #68]
 164              	.LVL5:
  69:../DaisyExamples/libDaisy/src/per/gpio.h ****         {
 165              		.loc 2 69 73 view .LVU25
 166              	.LBE79:
 167              	.LBE82:
 168              	.LBE86:
 169              		.loc 1 9 5 is_stmt 1 view .LVU26
 170              	.LBB87:
 171              	.LBB66:
 172              	.LBB61:
  69:../DaisyExamples/libDaisy/src/per/gpio.h ****         {
 173              		.loc 2 69 73 is_stmt 0 view .LVU27
 174 0034 C4E90A55 		strd	r5, r5, [r4, #40]
 175              	.LBE61:
 176              	.LBE66:
 177              	.LBE87:
 178              	.LBB88:
 179              	.LBB83:
 180              	.LBB80:
 181 0038 C4E90F55 		strd	r5, r5, [r4, #60]
 182              	.LBE80:
 183              	.LBE83:
 184              	.LBE88:
 185              		.loc 1 9 17 view .LVU28
 186 003c 0095     		str	r5, [sp]
 187 003e FFF7FEFF 		bl	_ZN5daisy4GPIO4InitENS_3PinENS0_4ModeENS0_4PullENS0_5SpeedE
 188              	.LVL6:
  10:dualLedButton.cpp ****     greenGpio.Init(greenLedPin, GPIO::Mode::OUTPUT);
 189              		.loc 1 10 5 is_stmt 1 view .LVU29
 190              		.loc 1 10 19 is_stmt 0 view .LVU30
 191 0042 04F13800 		add	r0, r4, #56
 192 0046 2B46     		mov	r3, r5
 193 0048 0122     		movs	r2, #1
 194 004a 0899     		ldr	r1, [sp, #32]
 195 004c 0095     		str	r5, [sp]
 196 004e FFF7FEFF 		bl	_ZN5daisy4GPIO4InitENS_3PinENS0_4ModeENS0_4PullENS0_5SpeedE
 197              	.LVL7:
 198              	.LBE89:
  11:dualLedButton.cpp **** }
 199              		.loc 1 11 1 view .LVU31
 200 0052 2046     		mov	r0, r4
 201 0054 05B0     		add	sp, sp, #20
 202              		.cfi_def_cfa_offset 12
 203              		@ sp needed
 204 0056 30BD     		pop	{r4, r5, pc}
 205              		.loc 1 11 1 view .LVU32
 206              		.cfi_endproc
 207              	.LFE4789:
ARM GAS  C:\Users\papag\AppData\Local\Temp\cce3WeEa.s 			page 11


 209              		.global	_ZN13DualLedButtonC1EN5daisy3PinEmmS1_S1_
 210              		.thumb_set _ZN13DualLedButtonC1EN5daisy3PinEmmS1_S1_,_ZN13DualLedButtonC2EN5daisy3PinEmmS1_S1_
 211              		.section	.text._ZN13DualLedButton3NewEN5daisy3PinEmmS1_S1_,"ax",%progbits
 212              		.align	1
 213              		.p2align 2,,3
 214              		.global	_ZN13DualLedButton3NewEN5daisy3PinEmmS1_S1_
 215              		.syntax unified
 216              		.thumb
 217              		.thumb_func
 218              		.fpu fpv5-d16
 220              	_ZN13DualLedButton3NewEN5daisy3PinEmmS1_S1_:
 221              	.LVL8:
 222              	.LFB4791:
  12:dualLedButton.cpp **** 
  13:dualLedButton.cpp **** DualLedButton DualLedButton::New(Pin pin, uint32_t shortTime, uint32_t longTime, Pin greenLedPin, P
  14:dualLedButton.cpp **** {
 223              		.loc 1 14 1 is_stmt 1 view -0
 224              		.cfi_startproc
 225              		@ args = 8, pretend = 0, frame = 24
 226              		@ frame_needed = 0, uses_anonymous_args = 0
 227              		.loc 1 14 1 is_stmt 0 view .LVU34
 228 0000 30B5     		push	{r4, r5, lr}
 229              		.cfi_def_cfa_offset 12
 230              		.cfi_offset 4, -12
 231              		.cfi_offset 5, -8
 232              		.cfi_offset 14, -4
 233 0002 89B0     		sub	sp, sp, #36
 234              		.cfi_def_cfa_offset 48
 235              		.loc 1 14 1 view .LVU35
 236 0004 0446     		mov	r4, r0
 237              	.LBB109:
 238              	.LBB110:
 239              	.LBB111:
 240              	.LBB112:
 241              	.LBB113:
 242              	.LBB114:
 243              	.LBB115:
 244              	.LBB116:
  69:../DaisyExamples/libDaisy/src/per/gpio.h ****         {
 245              		.loc 2 69 73 view .LVU36
 246 0006 0025     		movs	r5, #0
 247 0008 ADF81410 		strh	r1, [sp, #20]	@ movhi
 248              	.LBE116:
 249              	.LBE115:
 250              	.LBE114:
 251              	.LBE113:
 252              	.LBE112:
 253              	.LBE111:
 254              	.LBE110:
 255              	.LBE109:
 256              		.loc 1 14 1 view .LVU37
 257 000c ADF80C10 		strh	r1, [sp, #12]	@ movhi
  15:dualLedButton.cpp ****     return DualLedButton(pin, shortTime, longTime, greenLedPin, redLedPin);
 258              		.loc 1 15 5 is_stmt 1 view .LVU38
 259              	.LVL9:
 260              		.loc 1 15 5 is_stmt 0 view .LVU39
 261 0010 BDF83010 		ldrh	r1, [sp, #48]
ARM GAS  C:\Users\papag\AppData\Local\Temp\cce3WeEa.s 			page 12


 262 0014 ADF81810 		strh	r1, [sp, #24]	@ movhi
 263 0018 BDF83410 		ldrh	r1, [sp, #52]
 264 001c ADF81C10 		strh	r1, [sp, #28]	@ movhi
 265              	.LBB150:
 266              	.LBI109:
   6:dualLedButton.cpp **** : Button(pin, shortTime, longTime)
 267              		.loc 1 6 1 is_stmt 1 view .LVU40
 268              	.LBB149:
 269              	.LBB148:
   7:dualLedButton.cpp **** {
 270              		.loc 1 7 34 is_stmt 0 view .LVU41
 271 0020 0599     		ldr	r1, [sp, #20]
 272 0022 FFF7FEFF 		bl	_ZN6ButtonC2EN5daisy3PinEmm
 273              	.LVL10:
 274              	.LBB127:
 275              	.LBI112:
 276              		.loc 2 74 5 is_stmt 1 view .LVU42
 277              	.LBB124:
 278              	.LBB122:
 279              	.LBI114:
  68:../DaisyExamples/libDaisy/src/per/gpio.h ****         : pin(), mode(Mode::INPUT), pull(Pull::NOPULL), speed(Speed::LOW)
 280              		.loc 2 68 9 view .LVU43
 281              	.LBB120:
 282              	.LBB118:
 283              	.LBB117:
 284              	.LBI117:
 285              		.loc 3 272 15 view .LVU44
 286              		.loc 3 272 15 is_stmt 0 view .LVU45
 287              	.LBE117:
 288              	.LBE118:
 289              	.LBE120:
 290              	.LBE122:
 291              	.LBE124:
 292              	.LBE127:
 293              	.LBB128:
 294              	.LBI128:
 295              		.loc 2 74 5 is_stmt 1 view .LVU46
 296              	.LBB129:
 297              	.LBB130:
 298              	.LBI130:
  68:../DaisyExamples/libDaisy/src/per/gpio.h ****         : pin(), mode(Mode::INPUT), pull(Pull::NOPULL), speed(Speed::LOW)
 299              		.loc 2 68 9 view .LVU47
 300              	.LBB131:
 301              	.LBB132:
 302              	.LBB133:
 303              	.LBI133:
 304              		.loc 3 272 15 view .LVU48
 305              		.loc 3 272 15 is_stmt 0 view .LVU49
 306              	.LBE133:
 307              	.LBE132:
 308              	.LBE131:
 309              	.LBE130:
 310              	.LBE129:
 311              	.LBE128:
 312              	.LBB143:
 313              	.LBB125:
 314              		.loc 2 74 12 view .LVU50
ARM GAS  C:\Users\papag\AppData\Local\Temp\cce3WeEa.s 			page 13


 315 0026 4FF60B71 		movw	r1, #65291
 316              	.LBE125:
 317              	.LBE143:
   9:dualLedButton.cpp ****     greenGpio.Init(greenLedPin, GPIO::Mode::OUTPUT);
 318              		.loc 1 9 17 view .LVU51
 319 002a 2B46     		mov	r3, r5
 320 002c 04F12400 		add	r0, r4, #36
 321              	.LBB144:
 322              	.LBB140:
 323              		.loc 2 74 12 view .LVU52
 324 0030 A163     		str	r1, [r4, #56]
 325              	.LBE140:
 326              	.LBE144:
   9:dualLedButton.cpp ****     greenGpio.Init(greenLedPin, GPIO::Mode::OUTPUT);
 327              		.loc 1 9 17 view .LVU53
 328 0032 0122     		movs	r2, #1
 329              	.LBB145:
 330              	.LBB126:
 331              		.loc 2 74 12 view .LVU54
 332 0034 C4E90915 		strd	r1, r5, [r4, #36]
 333              	.LBB123:
 334              	.LBB121:
 335              	.LBB119:
  69:../DaisyExamples/libDaisy/src/per/gpio.h ****         {
 336              		.loc 2 69 73 view .LVU55
 337 0038 C4E90B55 		strd	r5, r5, [r4, #44]
 338              	.LBE119:
 339              	.LBE121:
 340              	.LBE123:
 341              	.LBE126:
 342              	.LBE145:
   9:dualLedButton.cpp ****     greenGpio.Init(greenLedPin, GPIO::Mode::OUTPUT);
 343              		.loc 1 9 17 view .LVU56
 344 003c 0799     		ldr	r1, [sp, #28]
 345              	.LBB146:
 346              	.LBB141:
 347              	.LBB138:
 348              	.LBB136:
 349              	.LBB134:
  69:../DaisyExamples/libDaisy/src/per/gpio.h ****         {
 350              		.loc 2 69 73 view .LVU57
 351 003e 6564     		str	r5, [r4, #68]
 352              	.LVL11:
  69:../DaisyExamples/libDaisy/src/per/gpio.h ****         {
 353              		.loc 2 69 73 view .LVU58
 354              	.LBE134:
 355              	.LBE136:
 356              	.LBE138:
 357              	.LBE141:
 358              	.LBE146:
   9:dualLedButton.cpp ****     greenGpio.Init(greenLedPin, GPIO::Mode::OUTPUT);
 359              		.loc 1 9 5 is_stmt 1 view .LVU59
 360              	.LBB147:
 361              	.LBB142:
 362              	.LBB139:
 363              	.LBB137:
 364              	.LBB135:
ARM GAS  C:\Users\papag\AppData\Local\Temp\cce3WeEa.s 			page 14


  69:../DaisyExamples/libDaisy/src/per/gpio.h ****         {
 365              		.loc 2 69 73 is_stmt 0 view .LVU60
 366 0040 C4E90F55 		strd	r5, r5, [r4, #60]
 367              	.LBE135:
 368              	.LBE137:
 369              	.LBE139:
 370              	.LBE142:
 371              	.LBE147:
   9:dualLedButton.cpp ****     greenGpio.Init(greenLedPin, GPIO::Mode::OUTPUT);
 372              		.loc 1 9 17 view .LVU61
 373 0044 0095     		str	r5, [sp]
 374 0046 FFF7FEFF 		bl	_ZN5daisy4GPIO4InitENS_3PinENS0_4ModeENS0_4PullENS0_5SpeedE
 375              	.LVL12:
  10:dualLedButton.cpp **** }
 376              		.loc 1 10 5 is_stmt 1 view .LVU62
  10:dualLedButton.cpp **** }
 377              		.loc 1 10 19 is_stmt 0 view .LVU63
 378 004a 04F13800 		add	r0, r4, #56
 379 004e 2B46     		mov	r3, r5
 380 0050 0122     		movs	r2, #1
 381 0052 0699     		ldr	r1, [sp, #24]
 382 0054 0095     		str	r5, [sp]
 383 0056 FFF7FEFF 		bl	_ZN5daisy4GPIO4InitENS_3PinENS0_4ModeENS0_4PullENS0_5SpeedE
 384              	.LVL13:
  10:dualLedButton.cpp **** }
 385              		.loc 1 10 19 view .LVU64
 386              	.LBE148:
 387              	.LBE149:
 388              	.LBE150:
  16:dualLedButton.cpp **** }
 389              		.loc 1 16 1 view .LVU65
 390 005a 2046     		mov	r0, r4
 391 005c 09B0     		add	sp, sp, #36
 392              		.cfi_def_cfa_offset 12
 393              		@ sp needed
 394 005e 30BD     		pop	{r4, r5, pc}
 395              		.loc 1 16 1 view .LVU66
 396              		.cfi_endproc
 397              	.LFE4791:
 399              		.section	.text._ZN13DualLedButton3OffEv,"ax",%progbits
 400              		.align	1
 401              		.p2align 2,,3
 402              		.global	_ZN13DualLedButton3OffEv
 403              		.syntax unified
 404              		.thumb
 405              		.thumb_func
 406              		.fpu fpv5-d16
 408              	_ZN13DualLedButton3OffEv:
 409              	.LVL14:
 410              	.LFB4792:
  17:dualLedButton.cpp **** 
  18:dualLedButton.cpp **** void DualLedButton::Off()
  19:dualLedButton.cpp **** {
 411              		.loc 1 19 1 is_stmt 1 view -0
 412              		.cfi_startproc
 413              		@ args = 0, pretend = 0, frame = 0
 414              		@ frame_needed = 0, uses_anonymous_args = 0
ARM GAS  C:\Users\papag\AppData\Local\Temp\cce3WeEa.s 			page 15


  20:dualLedButton.cpp ****     redGpio.Write(false);
 415              		.loc 1 20 5 view .LVU68
  19:dualLedButton.cpp ****     redGpio.Write(false);
 416              		.loc 1 19 1 is_stmt 0 view .LVU69
 417 0000 10B5     		push	{r4, lr}
 418              		.cfi_def_cfa_offset 8
 419              		.cfi_offset 4, -8
 420              		.cfi_offset 14, -4
  19:dualLedButton.cpp ****     redGpio.Write(false);
 421              		.loc 1 19 1 view .LVU70
 422 0002 0446     		mov	r4, r0
 423              		.loc 1 20 18 view .LVU71
 424 0004 0021     		movs	r1, #0
 425 0006 2430     		adds	r0, r0, #36
 426              	.LVL15:
 427              		.loc 1 20 18 view .LVU72
 428 0008 FFF7FEFF 		bl	_ZN5daisy4GPIO5WriteEb
 429              	.LVL16:
  21:dualLedButton.cpp ****     greenGpio.Write(false);
 430              		.loc 1 21 5 is_stmt 1 view .LVU73
 431              		.loc 1 21 20 is_stmt 0 view .LVU74
 432 000c 04F13800 		add	r0, r4, #56
 433 0010 0021     		movs	r1, #0
  22:dualLedButton.cpp **** }
 434              		.loc 1 22 1 view .LVU75
 435 0012 BDE81040 		pop	{r4, lr}
 436              		.cfi_restore 14
 437              		.cfi_restore 4
 438              		.cfi_def_cfa_offset 0
 439              	.LVL17:
  21:dualLedButton.cpp ****     greenGpio.Write(false);
 440              		.loc 1 21 20 view .LVU76
 441 0016 FFF7FEBF 		b	_ZN5daisy4GPIO5WriteEb
 442              	.LVL18:
  21:dualLedButton.cpp ****     greenGpio.Write(false);
 443              		.loc 1 21 20 view .LVU77
 444              		.cfi_endproc
 445              	.LFE4792:
 447 001a 00BF     		.section	.text._ZN13DualLedButton3RedEv,"ax",%progbits
 448              		.align	1
 449              		.p2align 2,,3
 450              		.global	_ZN13DualLedButton3RedEv
 451              		.syntax unified
 452              		.thumb
 453              		.thumb_func
 454              		.fpu fpv5-d16
 456              	_ZN13DualLedButton3RedEv:
 457              	.LVL19:
 458              	.LFB4793:
  23:dualLedButton.cpp **** 
  24:dualLedButton.cpp **** void DualLedButton::Red()
  25:dualLedButton.cpp **** {
 459              		.loc 1 25 1 is_stmt 1 view -0
 460              		.cfi_startproc
 461              		@ args = 0, pretend = 0, frame = 0
 462              		@ frame_needed = 0, uses_anonymous_args = 0
  26:dualLedButton.cpp ****     redGpio.Write(true);
ARM GAS  C:\Users\papag\AppData\Local\Temp\cce3WeEa.s 			page 16


 463              		.loc 1 26 5 view .LVU79
  25:dualLedButton.cpp ****     redGpio.Write(true);
 464              		.loc 1 25 1 is_stmt 0 view .LVU80
 465 0000 10B5     		push	{r4, lr}
 466              		.cfi_def_cfa_offset 8
 467              		.cfi_offset 4, -8
 468              		.cfi_offset 14, -4
  25:dualLedButton.cpp ****     redGpio.Write(true);
 469              		.loc 1 25 1 view .LVU81
 470 0002 0446     		mov	r4, r0
 471              		.loc 1 26 18 view .LVU82
 472 0004 0121     		movs	r1, #1
 473 0006 2430     		adds	r0, r0, #36
 474              	.LVL20:
 475              		.loc 1 26 18 view .LVU83
 476 0008 FFF7FEFF 		bl	_ZN5daisy4GPIO5WriteEb
 477              	.LVL21:
  27:dualLedButton.cpp ****     greenGpio.Write(false);
 478              		.loc 1 27 5 is_stmt 1 view .LVU84
 479              		.loc 1 27 20 is_stmt 0 view .LVU85
 480 000c 04F13800 		add	r0, r4, #56
 481 0010 0021     		movs	r1, #0
  28:dualLedButton.cpp **** }
 482              		.loc 1 28 1 view .LVU86
 483 0012 BDE81040 		pop	{r4, lr}
 484              		.cfi_restore 14
 485              		.cfi_restore 4
 486              		.cfi_def_cfa_offset 0
 487              	.LVL22:
  27:dualLedButton.cpp ****     greenGpio.Write(false);
 488              		.loc 1 27 20 view .LVU87
 489 0016 FFF7FEBF 		b	_ZN5daisy4GPIO5WriteEb
 490              	.LVL23:
  27:dualLedButton.cpp ****     greenGpio.Write(false);
 491              		.loc 1 27 20 view .LVU88
 492              		.cfi_endproc
 493              	.LFE4793:
 495 001a 00BF     		.section	.text._ZN13DualLedButton5GreenEv,"ax",%progbits
 496              		.align	1
 497              		.p2align 2,,3
 498              		.global	_ZN13DualLedButton5GreenEv
 499              		.syntax unified
 500              		.thumb
 501              		.thumb_func
 502              		.fpu fpv5-d16
 504              	_ZN13DualLedButton5GreenEv:
 505              	.LVL24:
 506              	.LFB4794:
  29:dualLedButton.cpp **** 
  30:dualLedButton.cpp **** void DualLedButton::Green()
  31:dualLedButton.cpp **** {
 507              		.loc 1 31 1 is_stmt 1 view -0
 508              		.cfi_startproc
 509              		@ args = 0, pretend = 0, frame = 0
 510              		@ frame_needed = 0, uses_anonymous_args = 0
  32:dualLedButton.cpp ****     redGpio.Write(false);
 511              		.loc 1 32 5 view .LVU90
ARM GAS  C:\Users\papag\AppData\Local\Temp\cce3WeEa.s 			page 17


  31:dualLedButton.cpp ****     redGpio.Write(false);
 512              		.loc 1 31 1 is_stmt 0 view .LVU91
 513 0000 10B5     		push	{r4, lr}
 514              		.cfi_def_cfa_offset 8
 515              		.cfi_offset 4, -8
 516              		.cfi_offset 14, -4
  31:dualLedButton.cpp ****     redGpio.Write(false);
 517              		.loc 1 31 1 view .LVU92
 518 0002 0446     		mov	r4, r0
 519              		.loc 1 32 18 view .LVU93
 520 0004 0021     		movs	r1, #0
 521 0006 2430     		adds	r0, r0, #36
 522              	.LVL25:
 523              		.loc 1 32 18 view .LVU94
 524 0008 FFF7FEFF 		bl	_ZN5daisy4GPIO5WriteEb
 525              	.LVL26:
  33:dualLedButton.cpp ****     greenGpio.Write(true);
 526              		.loc 1 33 5 is_stmt 1 view .LVU95
 527              		.loc 1 33 20 is_stmt 0 view .LVU96
 528 000c 04F13800 		add	r0, r4, #56
 529 0010 0121     		movs	r1, #1
  34:dualLedButton.cpp **** }
 530              		.loc 1 34 1 view .LVU97
 531 0012 BDE81040 		pop	{r4, lr}
 532              		.cfi_restore 14
 533              		.cfi_restore 4
 534              		.cfi_def_cfa_offset 0
 535              	.LVL27:
  33:dualLedButton.cpp ****     greenGpio.Write(true);
 536              		.loc 1 33 20 view .LVU98
 537 0016 FFF7FEBF 		b	_ZN5daisy4GPIO5WriteEb
 538              	.LVL28:
  33:dualLedButton.cpp ****     greenGpio.Write(true);
 539              		.loc 1 33 20 view .LVU99
 540              		.cfi_endproc
 541              	.LFE4794:
 543 001a 00BF     		.section	.text._ZN13DualLedButton5ColorEi,"ax",%progbits
 544              		.align	1
 545              		.p2align 2,,3
 546              		.global	_ZN13DualLedButton5ColorEi
 547              		.syntax unified
 548              		.thumb
 549              		.thumb_func
 550              		.fpu fpv5-d16
 552              	_ZN13DualLedButton5ColorEi:
 553              	.LVL29:
 554              	.LFB4795:
  35:dualLedButton.cpp **** 
  36:dualLedButton.cpp **** void DualLedButton::Color(int color)
  37:dualLedButton.cpp **** {
 555              		.loc 1 37 1 is_stmt 1 view -0
 556              		.cfi_startproc
 557              		@ args = 0, pretend = 0, frame = 0
 558              		@ frame_needed = 0, uses_anonymous_args = 0
  38:dualLedButton.cpp ****     redGpio.Write(color == 1);
 559              		.loc 1 38 5 view .LVU101
  37:dualLedButton.cpp ****     redGpio.Write(color == 1);
ARM GAS  C:\Users\papag\AppData\Local\Temp\cce3WeEa.s 			page 18


 560              		.loc 1 37 1 is_stmt 0 view .LVU102
 561 0000 38B5     		push	{r3, r4, r5, lr}
 562              		.cfi_def_cfa_offset 16
 563              		.cfi_offset 3, -16
 564              		.cfi_offset 4, -12
 565              		.cfi_offset 5, -8
 566              		.cfi_offset 14, -4
  37:dualLedButton.cpp ****     redGpio.Write(color == 1);
 567              		.loc 1 37 1 view .LVU103
 568 0002 0D46     		mov	r5, r1
 569              		.loc 1 38 18 view .LVU104
 570 0004 A1F10101 		sub	r1, #1
 571              	.LVL30:
  37:dualLedButton.cpp ****     redGpio.Write(color == 1);
 572              		.loc 1 37 1 view .LVU105
 573 0008 0446     		mov	r4, r0
 574              		.loc 1 38 18 view .LVU106
 575 000a 2430     		adds	r0, r0, #36
 576              	.LVL31:
 577              		.loc 1 38 18 view .LVU107
 578 000c B1FA81F1 		clz	r1, r1
 579 0010 4909     		lsrs	r1, r1, #5
 580 0012 FFF7FEFF 		bl	_ZN5daisy4GPIO5WriteEb
 581              	.LVL32:
  39:dualLedButton.cpp ****     greenGpio.Write(color == 2);
 582              		.loc 1 39 5 is_stmt 1 view .LVU108
 583              		.loc 1 39 20 is_stmt 0 view .LVU109
 584 0016 A5F10201 		sub	r1, r5, #2
 585 001a 04F13800 		add	r0, r4, #56
 586 001e B1FA81F1 		clz	r1, r1
  40:dualLedButton.cpp **** }...
 587              		.loc 1 40 1 view .LVU110
 588 0022 BDE83840 		pop	{r3, r4, r5, lr}
 589              		.cfi_restore 14
 590              		.cfi_restore 5
 591              		.cfi_restore 4
 592              		.cfi_restore 3
 593              		.cfi_def_cfa_offset 0
 594              	.LVL33:
  39:dualLedButton.cpp ****     greenGpio.Write(color == 2);
 595              		.loc 1 39 20 view .LVU111
 596 0026 4909     		lsrs	r1, r1, #5
 597 0028 FFF7FEBF 		b	_ZN5daisy4GPIO5WriteEb
 598              	.LVL34:
  39:dualLedButton.cpp ****     greenGpio.Write(color == 2);
 599              		.loc 1 39 20 view .LVU112
 600              		.cfi_endproc
 601              	.LFE4795:
 603              		.text
 604              	.Letext0:
 605              		.file 4 "c:\\program files\\daisytoolchain\\arm-none-eabi\\include\\machine\\_default_types.h"
 606              		.file 5 "c:\\program files\\daisytoolchain\\arm-none-eabi\\include\\sys\\_stdint.h"
 607              		.file 6 "c:\\program files\\daisytoolchain\\arm-none-eabi\\include\\stdint.h"
 608              		.file 7 "c:\\program files\\daisytoolchain\\lib\\gcc\\arm-none-eabi\\10.2.1\\include\\stddef.h"
 609              		.file 8 "c:\\program files\\daisytoolchain\\arm-none-eabi\\include\\c++\\10.2.1\\cmath"
 610              		.file 9 "c:\\program files\\daisytoolchain\\arm-none-eabi\\include\\c++\\10.2.1\\bits\\std_abs.h"
 611              		.file 10 "c:\\program files\\daisytoolchain\\arm-none-eabi\\include\\c++\\10.2.1\\cstdlib"
ARM GAS  C:\Users\papag\AppData\Local\Temp\cce3WeEa.s 			page 19


 612              		.file 11 "c:\\program files\\daisytoolchain\\arm-none-eabi\\include\\c++\\10.2.1\\cstdint"
 613              		.file 12 "c:\\program files\\daisytoolchain\\arm-none-eabi\\include\\c++\\10.2.1\\type_traits"
 614              		.file 13 "c:\\program files\\daisytoolchain\\arm-none-eabi\\include\\c++\\10.2.1\\debug\\debug.h"
 615              		.file 14 "c:\\program files\\daisytoolchain\\arm-none-eabi\\include\\c++\\10.2.1\\arm-none-eabi\\t
 616              		.file 15 "c:\\program files\\daisytoolchain\\arm-none-eabi\\include\\c++\\10.2.1\\bits\\algorithmf
 617              		.file 16 "c:\\program files\\daisytoolchain\\arm-none-eabi\\include\\c++\\10.2.1\\bits\\stl_pair.h
 618              		.file 17 "c:\\program files\\daisytoolchain\\arm-none-eabi\\include\\c++\\10.2.1\\bits\\exception_
 619              		.file 18 "c:\\program files\\daisytoolchain\\arm-none-eabi\\include\\c++\\10.2.1\\cstdarg"
 620              		.file 19 "c:\\program files\\daisytoolchain\\arm-none-eabi\\include\\c++\\10.2.1\\cstdio"
 621              		.file 20 "c:\\program files\\daisytoolchain\\arm-none-eabi\\include\\c++\\10.2.1\\cstring"
 622              		.file 21 "c:\\program files\\daisytoolchain\\arm-none-eabi\\include\\c++\\10.2.1\\cwchar"
 623              		.file 22 "c:\\program files\\daisytoolchain\\arm-none-eabi\\include\\c++\\10.2.1\\clocale"
 624              		.file 23 "c:\\program files\\daisytoolchain\\arm-none-eabi\\include\\c++\\10.2.1\\bits\\basic_stri
 625              		.file 24 "c:\\program files\\daisytoolchain\\arm-none-eabi\\include\\c++\\10.2.1\\bits\\stl_tempbu
 626              		.file 25 "c:\\program files\\daisytoolchain\\arm-none-eabi\\include\\c++\\10.2.1\\bits\\predefined
 627              		.file 26 "c:\\program files\\daisytoolchain\\arm-none-eabi\\include\\sys\\_types.h"
 628              		.file 27 "c:\\program files\\daisytoolchain\\arm-none-eabi\\include\\sys\\reent.h"
 629              		.file 28 "c:\\program files\\daisytoolchain\\arm-none-eabi\\include\\sys\\lock.h"
 630              		.file 29 "c:\\program files\\daisytoolchain\\arm-none-eabi\\include\\math.h"
 631              		.file 30 "c:\\program files\\daisytoolchain\\arm-none-eabi\\include\\stdlib.h"
 632              		.file 31 "c:\\program files\\daisytoolchain\\arm-none-eabi\\include\\c++\\10.2.1\\math.h"
 633              		.file 32 "c:\\program files\\daisytoolchain\\arm-none-eabi\\include\\c++\\10.2.1\\stdlib.h"
 634              		.file 33 "../DaisyExamples/libDaisy/src/util/wav_format.h"
 635              		.file 34 "../DaisyExamples/libDaisy/src/dev/max11300.h"
 636              		.file 35 "../DaisyExamples/libDaisy/src/daisy_seed.h"
 637              		.file 36 "c:\\program files\\daisytoolchain\\lib\\gcc\\arm-none-eabi\\10.2.1\\include\\stdarg.h"
 638              		.file 37 "c:\\program files\\daisytoolchain\\arm-none-eabi\\include\\stdio.h"
 639              		.file 38 "c:\\program files\\daisytoolchain\\arm-none-eabi\\include\\string.h"
 640              		.file 39 "../DaisyExamples/DaisySP/Source/Control/adenv.h"
 641              		.file 40 "../DaisyExamples/DaisySP/Source/Utility/dsp.h"
 642              		.file 41 "c:\\program files\\daisytoolchain\\arm-none-eabi\\include\\wchar.h"
 643              		.file 42 "c:\\program files\\daisytoolchain\\arm-none-eabi\\include\\locale.h"
 644              		.file 43 "button.h"
 645              		.file 44 "dualLedButton.h"
 646              		.file 45 "<built-in>"
 647              		.file 46 "../DaisyExamples/libDaisy/src/dev/sr_595.h"
ARM GAS  C:\Users\papag\AppData\Local\Temp\cce3WeEa.s 			page 20

