ARM GAS  C:\Users\papag\AppData\Local\Temp\cc4TIa1y.s 			page 1


   1              		.cpu cortex-m7
   2              		.eabi_attribute 28, 1
   3              		.eabi_attribute 20, 1
   4              		.eabi_attribute 21, 1
   5              		.eabi_attribute 23, 3
   6              		.eabi_attribute 24, 1
   7              		.eabi_attribute 25, 1
   8              		.eabi_attribute 26, 1
   9              		.eabi_attribute 30, 2
  10              		.eabi_attribute 34, 1
  11              		.eabi_attribute 18, 4
  12              		.file	"track.cpp"
  13              		.text
  14              	.Ltext0:
  15              		.cfi_sections	.debug_frame
  16              		.section	.text._ZN5TrackC2EiP13DualLedButton,"ax",%progbits
  17              		.align	1
  18              		.p2align 2,,3
  19              		.global	_ZN5TrackC2EiP13DualLedButton
  20              		.arch armv7e-m
  21              		.syntax unified
  22              		.thumb
  23              		.thumb_func
  24              		.fpu fpv5-d16
  26              	_ZN5TrackC2EiP13DualLedButton:
  27              	.LVL0:
  28              	.LFB4789:
  29              		.file 1 "track.cpp"
   1:track.cpp     **** #include "daisy_seed.h"
   2:track.cpp     **** #include "daisysp.h"
   3:track.cpp     **** #include "track.h"
   4:track.cpp     **** 
   5:track.cpp     **** using namespace daisy;
   6:track.cpp     **** 
   7:track.cpp     **** Track::Track(int o, DualLedButton *btn) {
  30              		.loc 1 7 1 view -0
  31              		.cfi_startproc
  32              		@ args = 0, pretend = 0, frame = 0
  33              		@ frame_needed = 0, uses_anonymous_args = 0
  34              		@ link register save eliminated.
  35              	.LBB5:
   8:track.cpp     ****     ordinal = o;
  36              		.loc 1 8 5 view .LVU1
   9:track.cpp     ****     button = btn;
  10:track.cpp     ****     state = BLANK;
  37              		.loc 1 10 11 is_stmt 0 view .LVU2
  38 0000 0023     		movs	r3, #0
   8:track.cpp     ****     ordinal = o;
  39              		.loc 1 8 13 view .LVU3
  40 0002 C0E90112 		strd	r1, r2, [r0, #4]
   9:track.cpp     ****     button = btn;
  41              		.loc 1 9 5 is_stmt 1 view .LVU4
  42              		.loc 1 10 5 view .LVU5
  43              		.loc 1 10 11 is_stmt 0 view .LVU6
  44 0006 0370     		strb	r3, [r0]
  11:track.cpp     ****     heartbeat = 0;
  45              		.loc 1 11 5 is_stmt 1 view .LVU7
ARM GAS  C:\Users\papag\AppData\Local\Temp\cc4TIa1y.s 			page 2


  46              		.loc 1 11 15 is_stmt 0 view .LVU8
  47 0008 C360     		str	r3, [r0, #12]
  12:track.cpp     **** 
  13:track.cpp     ****     if(o == 0) {
  48              		.loc 1 13 5 is_stmt 1 view .LVU9
  49 000a 09B9     		cbnz	r1, .L2
  14:track.cpp     ****         state = BLANK;
  50              		.loc 1 14 9 view .LVU10
  15:track.cpp     ****         nextState = RECORDING;
  51              		.loc 1 15 9 view .LVU11
  52              		.loc 1 15 19 is_stmt 0 view .LVU12
  53 000c 0323     		movs	r3, #3
  54 000e 4370     		strb	r3, [r0, #1]
  55              	.L2:
  56              	.LBE5:
  16:track.cpp     ****     }
  17:track.cpp     **** }
  57              		.loc 1 17 1 view .LVU13
  58 0010 7047     		bx	lr
  59              		.cfi_endproc
  60              	.LFE4789:
  62              		.global	_ZN5TrackC1EiP13DualLedButton
  63              		.thumb_set _ZN5TrackC1EiP13DualLedButton,_ZN5TrackC2EiP13DualLedButton
  64 0012 00BF     		.section	.text._ZN5Track3NewEiP13DualLedButton,"ax",%progbits
  65              		.align	1
  66              		.p2align 2,,3
  67              		.global	_ZN5Track3NewEiP13DualLedButton
  68              		.syntax unified
  69              		.thumb
  70              		.thumb_func
  71              		.fpu fpv5-d16
  73              	_ZN5Track3NewEiP13DualLedButton:
  74              	.LVL1:
  75              	.LFB4791:
  18:track.cpp     **** 
  19:track.cpp     **** Track Track::New(int o, DualLedButton *btn) {
  76              		.loc 1 19 45 is_stmt 1 view -0
  77              		.cfi_startproc
  78              		@ args = 0, pretend = 0, frame = 0
  79              		@ frame_needed = 0, uses_anonymous_args = 0
  80              		@ link register save eliminated.
  20:track.cpp     ****     return Track(o, btn);
  81              		.loc 1 20 5 view .LVU15
  82              	.LBB6:
  83              	.LBB7:
  84              	.LBB8:
  10:track.cpp     ****     heartbeat = 0;
  85              		.loc 1 10 11 is_stmt 0 view .LVU16
  86 0000 0023     		movs	r3, #0
  87              	.LVL2:
  10:track.cpp     ****     heartbeat = 0;
  88              		.loc 1 10 11 view .LVU17
  89              	.LBE8:
  90              	.LBE7:
  91              	.LBI6:
   7:track.cpp     ****     ordinal = o;
  92              		.loc 1 7 1 is_stmt 1 view .LVU18
ARM GAS  C:\Users\papag\AppData\Local\Temp\cc4TIa1y.s 			page 3


  93              	.LBB10:
  94              	.LBB9:
   8:track.cpp     ****     button = btn;
  95              		.loc 1 8 5 view .LVU19
   8:track.cpp     ****     button = btn;
  96              		.loc 1 8 13 is_stmt 0 view .LVU20
  97 0002 C0E90112 		strd	r1, r2, [r0, #4]
   9:track.cpp     ****     state = BLANK;
  98              		.loc 1 9 5 is_stmt 1 view .LVU21
  10:track.cpp     ****     heartbeat = 0;
  99              		.loc 1 10 5 view .LVU22
  10:track.cpp     ****     heartbeat = 0;
 100              		.loc 1 10 11 is_stmt 0 view .LVU23
 101 0006 0370     		strb	r3, [r0]
  11:track.cpp     **** 
 102              		.loc 1 11 5 is_stmt 1 view .LVU24
  11:track.cpp     **** 
 103              		.loc 1 11 15 is_stmt 0 view .LVU25
 104 0008 C360     		str	r3, [r0, #12]
  13:track.cpp     ****         state = BLANK;
 105              		.loc 1 13 5 is_stmt 1 view .LVU26
 106 000a 09B9     		cbnz	r1, .L4
  14:track.cpp     ****         nextState = RECORDING;
 107              		.loc 1 14 9 view .LVU27
  15:track.cpp     ****     }
 108              		.loc 1 15 9 view .LVU28
  15:track.cpp     ****     }
 109              		.loc 1 15 19 is_stmt 0 view .LVU29
 110 000c 0323     		movs	r3, #3
 111 000e 4370     		strb	r3, [r0, #1]
 112              	.LVL3:
 113              	.L4:
  15:track.cpp     ****     }
 114              		.loc 1 15 19 view .LVU30
 115              	.LBE9:
 116              	.LBE10:
 117              	.LBE6:
  21:track.cpp     **** }
 118              		.loc 1 21 1 view .LVU31
 119 0010 7047     		bx	lr
 120              		.cfi_endproc
 121              	.LFE4791:
 123 0012 00BF     		.section	.text._ZN5Track5AudioEffPfS0_S0_S0_,"ax",%progbits
 124              		.align	1
 125              		.p2align 2,,3
 126              		.global	_ZN5Track5AudioEffPfS0_S0_S0_
 127              		.syntax unified
 128              		.thumb
 129              		.thumb_func
 130              		.fpu fpv5-d16
 132              	_ZN5Track5AudioEffPfS0_S0_S0_:
 133              	.LVL4:
 134              	.LFB4792:
  22:track.cpp     **** 
  23:track.cpp     **** void Track::Audio(
  24:track.cpp     ****     const float leftIn, const float rightIn, 
  25:track.cpp     ****     float *leftOut, float *rightOut, 
ARM GAS  C:\Users\papag\AppData\Local\Temp\cc4TIa1y.s 			page 4


  26:track.cpp     ****     float *bufferLeft, float *bufferRight) {
 135              		.loc 1 26 44 is_stmt 1 view -0
 136              		.cfi_startproc
 137              		@ args = 4, pretend = 0, frame = 0
 138              		@ frame_needed = 0, uses_anonymous_args = 0
 139              		@ link register save eliminated.
  27:track.cpp     **** 
  28:track.cpp     ****     heartbeat++;
 140              		.loc 1 28 5 view .LVU33
  26:track.cpp     **** 
 141              		.loc 1 26 44 is_stmt 0 view .LVU34
 142 0000 30B4     		push	{r4, r5}
 143              		.cfi_def_cfa_offset 8
 144              		.cfi_offset 4, -8
 145              		.cfi_offset 5, -4
  29:track.cpp     **** 
  30:track.cpp     ****     if(state == RECORDING) {
 146              		.loc 1 30 8 view .LVU35
 147 0002 90F800C0 		ldrb	ip, [r0]	@ zero_extendqisi2
  28:track.cpp     **** 
 148              		.loc 1 28 14 view .LVU36
 149 0006 C468     		ldr	r4, [r0, #12]
 150              		.loc 1 30 5 view .LVU37
 151 0008 BCF1030F 		cmp	ip, #3
  26:track.cpp     **** 
 152              		.loc 1 26 44 view .LVU38
 153 000c 029D     		ldr	r5, [sp, #8]
  28:track.cpp     **** 
 154              		.loc 1 28 14 view .LVU39
 155 000e 04F10104 		add	r4, r4, #1
 156 0012 C460     		str	r4, [r0, #12]
 157              		.loc 1 30 5 is_stmt 1 view .LVU40
 158 0014 2AD0     		beq	.L16
  31:track.cpp     ****         *leftOut += *bufferLeft;
  32:track.cpp     ****         *rightOut += *bufferRight;
  33:track.cpp     ****         *bufferLeft = leftIn;
  34:track.cpp     ****         *bufferRight = rightIn;
  35:track.cpp     ****         if(leftIn + rightIn > 0.5 || ((heartbeat >> 8) & 1) == 1)
  36:track.cpp     ****             button->Red();
  37:track.cpp     ****         else
  38:track.cpp     ****             button->Off();
  39:track.cpp     ****     } 
  40:track.cpp     ****     else if(state == PLAYING) {
 159              		.loc 1 40 10 view .LVU41
 160 0016 BCF1020F 		cmp	ip, #2
 161 001a 04D0     		beq	.L17
  41:track.cpp     ****         *leftOut += *bufferLeft;
  42:track.cpp     ****         *rightOut += *bufferRight;
  43:track.cpp     ****         if(*bufferLeft + *bufferRight > 0.5 || ((heartbeat >> 8) & 1) == 1)
  44:track.cpp     ****             button->Green();
  45:track.cpp     ****         else
  46:track.cpp     ****             button->Off();
  47:track.cpp     ****     }
  48:track.cpp     ****     else if(state == BLANK || state == MUTED) {
 162              		.loc 1 48 10 view .LVU42
 163 001c BCF1010F 		cmp	ip, #1
 164 0020 47D9     		bls	.L18
ARM GAS  C:\Users\papag\AppData\Local\Temp\cc4TIa1y.s 			page 5


  49:track.cpp     ****         button->Off();
  50:track.cpp     ****     }
  51:track.cpp     **** }
 165              		.loc 1 51 1 is_stmt 0 view .LVU43
 166 0022 30BC     		pop	{r4, r5}
 167              		.cfi_remember_state
 168              		.cfi_restore 5
 169              		.cfi_restore 4
 170              		.cfi_def_cfa_offset 0
 171              	.LVL5:
 172              		.loc 1 51 1 view .LVU44
 173 0024 7047     		bx	lr
 174              	.LVL6:
 175              	.L17:
 176              		.cfi_restore_state
  41:track.cpp     ****         *leftOut += *bufferLeft;
 177              		.loc 1 41 9 is_stmt 1 view .LVU45
  41:track.cpp     ****         *leftOut += *bufferLeft;
 178              		.loc 1 41 18 is_stmt 0 view .LVU46
 179 0026 D3ED006A 		vldr.32	s13, [r3]
  43:track.cpp     ****             button->Green();
 180              		.loc 1 43 9 view .LVU47
 181 002a B6EE007A 		vmov.f32	s14, #5.0e-1
  41:track.cpp     ****         *leftOut += *bufferLeft;
 182              		.loc 1 41 18 view .LVU48
 183 002e D1ED007A 		vldr.32	s15, [r1]
  44:track.cpp     ****         else
 184              		.loc 1 44 26 view .LVU49
 185 0032 8068     		ldr	r0, [r0, #8]
 186              	.LVL7:
  41:track.cpp     ****         *rightOut += *bufferRight;
 187              		.loc 1 41 18 view .LVU50
 188 0034 77EEA67A 		vadd.f32	s15, s15, s13
 189 0038 C1ED007A 		vstr.32	s15, [r1]
  42:track.cpp     ****         if(*bufferLeft + *bufferRight > 0.5 || ((heartbeat >> 8) & 1) == 1)
 190              		.loc 1 42 9 is_stmt 1 view .LVU51
  42:track.cpp     ****         if(*bufferLeft + *bufferRight > 0.5 || ((heartbeat >> 8) & 1) == 1)
 191              		.loc 1 42 19 is_stmt 0 view .LVU52
 192 003c D5ED006A 		vldr.32	s13, [r5]
 193 0040 D2ED007A 		vldr.32	s15, [r2]
 194 0044 77EEA67A 		vadd.f32	s15, s15, s13
 195 0048 C2ED007A 		vstr.32	s15, [r2]
  43:track.cpp     ****             button->Green();
 196              		.loc 1 43 9 is_stmt 1 view .LVU53
  43:track.cpp     ****             button->Green();
 197              		.loc 1 43 24 is_stmt 0 view .LVU54
 198 004c D3ED007A 		vldr.32	s15, [r3]
 199 0050 D5ED006A 		vldr.32	s13, [r5]
 200 0054 77EEA67A 		vadd.f32	s15, s15, s13
  43:track.cpp     ****             button->Green();
 201              		.loc 1 43 9 view .LVU55
 202 0058 F4EEC77A 		vcmpe.f32	s15, s14
 203 005c F1EE10FA 		vmrs	APSR_nzcv, FPSCR
 204 0060 01DC     		bgt	.L11
  43:track.cpp     ****             button->Green();
 205              		.loc 1 43 45 discriminator 1 view .LVU56
 206 0062 E305     		lsls	r3, r4, #23
ARM GAS  C:\Users\papag\AppData\Local\Temp\cc4TIa1y.s 			page 6


 207              	.LVL8:
  43:track.cpp     ****             button->Green();
 208              		.loc 1 43 45 discriminator 1 view .LVU57
 209 0064 26D5     		bpl	.L15
 210              	.L11:
  44:track.cpp     ****         else
 211              		.loc 1 44 13 is_stmt 1 view .LVU58
 212              		.loc 1 51 1 is_stmt 0 view .LVU59
 213 0066 30BC     		pop	{r4, r5}
 214              		.cfi_remember_state
 215              		.cfi_restore 5
 216              		.cfi_restore 4
 217              		.cfi_def_cfa_offset 0
 218              	.LVL9:
  44:track.cpp     ****         else
 219              		.loc 1 44 26 view .LVU60
 220 0068 FFF7FEBF 		b	_ZN13DualLedButton5GreenEv
 221              	.LVL10:
 222              	.L16:
 223              		.cfi_restore_state
  31:track.cpp     ****         *rightOut += *bufferRight;
 224              		.loc 1 31 9 is_stmt 1 view .LVU61
  31:track.cpp     ****         *rightOut += *bufferRight;
 225              		.loc 1 31 18 is_stmt 0 view .LVU62
 226 006c 93ED006A 		vldr.32	s12, [r3]
  35:track.cpp     ****             button->Red();
 227              		.loc 1 35 19 view .LVU63
 228 0070 70EE206A 		vadd.f32	s13, s0, s1
  31:track.cpp     ****         *rightOut += *bufferRight;
 229              		.loc 1 31 18 view .LVU64
 230 0074 D1ED007A 		vldr.32	s15, [r1]
  35:track.cpp     ****             button->Red();
 231              		.loc 1 35 9 view .LVU65
 232 0078 B6EE007A 		vmov.f32	s14, #5.0e-1
  36:track.cpp     ****         else
 233              		.loc 1 36 24 view .LVU66
 234 007c 8068     		ldr	r0, [r0, #8]
 235              	.LVL11:
  31:track.cpp     ****         *rightOut += *bufferRight;
 236              		.loc 1 31 18 view .LVU67
 237 007e 77EE867A 		vadd.f32	s15, s15, s12
  35:track.cpp     ****             button->Red();
 238              		.loc 1 35 9 view .LVU68
 239 0082 F4EEC76A 		vcmpe.f32	s13, s14
  31:track.cpp     ****         *rightOut += *bufferRight;
 240              		.loc 1 31 18 view .LVU69
 241 0086 C1ED007A 		vstr.32	s15, [r1]
  32:track.cpp     ****         *bufferLeft = leftIn;
 242              		.loc 1 32 9 is_stmt 1 view .LVU70
  32:track.cpp     ****         *bufferLeft = leftIn;
 243              		.loc 1 32 19 is_stmt 0 view .LVU71
 244 008a D2ED007A 		vldr.32	s15, [r2]
  35:track.cpp     ****             button->Red();
 245              		.loc 1 35 9 view .LVU72
 246 008e F1EE10FA 		vmrs	APSR_nzcv, FPSCR
  32:track.cpp     ****         *bufferLeft = leftIn;
 247              		.loc 1 32 19 view .LVU73
ARM GAS  C:\Users\papag\AppData\Local\Temp\cc4TIa1y.s 			page 7


 248 0092 95ED006A 		vldr.32	s12, [r5]
 249 0096 77EE867A 		vadd.f32	s15, s15, s12
 250 009a C2ED007A 		vstr.32	s15, [r2]
  33:track.cpp     ****         *bufferRight = rightIn;
 251              		.loc 1 33 9 is_stmt 1 view .LVU74
  33:track.cpp     ****         *bufferRight = rightIn;
 252              		.loc 1 33 21 is_stmt 0 view .LVU75
 253 009e 83ED000A 		vstr.32	s0, [r3]
  34:track.cpp     ****         if(leftIn + rightIn > 0.5 || ((heartbeat >> 8) & 1) == 1)
 254              		.loc 1 34 9 is_stmt 1 view .LVU76
  34:track.cpp     ****         if(leftIn + rightIn > 0.5 || ((heartbeat >> 8) & 1) == 1)
 255              		.loc 1 34 22 is_stmt 0 view .LVU77
 256 00a2 C5ED000A 		vstr.32	s1, [r5]
  35:track.cpp     ****             button->Red();
 257              		.loc 1 35 9 is_stmt 1 view .LVU78
 258 00a6 01DC     		bgt	.L8
  35:track.cpp     ****             button->Red();
 259              		.loc 1 35 35 is_stmt 0 discriminator 1 view .LVU79
 260 00a8 E205     		lsls	r2, r4, #23
 261              	.LVL12:
  35:track.cpp     ****             button->Red();
 262              		.loc 1 35 35 discriminator 1 view .LVU80
 263 00aa 03D5     		bpl	.L15
 264              	.L8:
  36:track.cpp     ****         else
 265              		.loc 1 36 13 is_stmt 1 view .LVU81
 266              		.loc 1 51 1 is_stmt 0 view .LVU82
 267 00ac 30BC     		pop	{r4, r5}
 268              		.cfi_remember_state
 269              		.cfi_restore 5
 270              		.cfi_restore 4
 271              		.cfi_def_cfa_offset 0
 272              	.LVL13:
  36:track.cpp     ****         else
 273              		.loc 1 36 24 view .LVU83
 274 00ae FFF7FEBF 		b	_ZN13DualLedButton3RedEv
 275              	.LVL14:
 276              	.L18:
 277              		.cfi_restore_state
  49:track.cpp     ****     }
 278              		.loc 1 49 9 is_stmt 1 view .LVU84
  49:track.cpp     ****     }
 279              		.loc 1 49 20 is_stmt 0 view .LVU85
 280 00b2 8068     		ldr	r0, [r0, #8]
 281              	.LVL15:
 282              	.L15:
 283              		.loc 1 51 1 view .LVU86
 284 00b4 30BC     		pop	{r4, r5}
 285              		.cfi_restore 5
 286              		.cfi_restore 4
 287              		.cfi_def_cfa_offset 0
 288              	.LVL16:
  49:track.cpp     ****     }
 289              		.loc 1 49 20 view .LVU87
 290 00b6 FFF7FEBF 		b	_ZN13DualLedButton3OffEv
 291              	.LVL17:
  49:track.cpp     ****     }
ARM GAS  C:\Users\papag\AppData\Local\Temp\cc4TIa1y.s 			page 8


 292              		.loc 1 49 20 view .LVU88
 293              		.cfi_endproc
 294              	.LFE4792:
 296 00ba 00BF     		.section	.text._ZN5Track4LoopEv,"ax",%progbits
 297              		.align	1
 298              		.p2align 2,,3
 299              		.global	_ZN5Track4LoopEv
 300              		.syntax unified
 301              		.thumb
 302              		.thumb_func
 303              		.fpu fpv5-d16
 305              	_ZN5Track4LoopEv:
 306              	.LVL18:
 307              	.LFB4793:
  52:track.cpp     **** 
  53:track.cpp     **** void Track::Loop() {
 308              		.loc 1 53 20 is_stmt 1 view -0
 309              		.cfi_startproc
 310              		@ args = 0, pretend = 0, frame = 0
 311              		@ frame_needed = 0, uses_anonymous_args = 0
 312              		@ link register save eliminated.
  54:track.cpp     ****     state = nextState;
 313              		.loc 1 54 5 view .LVU90
 314              		.loc 1 54 13 is_stmt 0 view .LVU91
 315 0000 4378     		ldrb	r3, [r0, #1]	@ zero_extendqisi2
  55:track.cpp     ****     if(state == RECORDING)
 316              		.loc 1 55 5 view .LVU92
 317 0002 032B     		cmp	r3, #3
  54:track.cpp     ****     state = nextState;
 318              		.loc 1 54 11 view .LVU93
 319 0004 0370     		strb	r3, [r0]
 320              		.loc 1 55 5 is_stmt 1 view .LVU94
 321 0006 01D1     		bne	.L19
  56:track.cpp     ****         nextState = PLAYING;
 322              		.loc 1 56 9 view .LVU95
 323              		.loc 1 56 19 is_stmt 0 view .LVU96
 324 0008 0223     		movs	r3, #2
 325 000a 4370     		strb	r3, [r0, #1]
 326              	.L19:
  57:track.cpp     **** }
 327              		.loc 1 57 1 view .LVU97
 328 000c 7047     		bx	lr
 329              		.cfi_endproc
 330              	.LFE4793:
 332 000e 00BF     		.section	.text._ZN5Track9GetButtonEv,"ax",%progbits
 333              		.align	1
 334              		.p2align 2,,3
 335              		.global	_ZN5Track9GetButtonEv
 336              		.syntax unified
 337              		.thumb
 338              		.thumb_func
 339              		.fpu fpv5-d16
 341              	_ZN5Track9GetButtonEv:
 342              	.LVL19:
 343              	.LFB4794:
  58:track.cpp     **** 
  59:track.cpp     **** DualLedButton *Track::GetButton() {
ARM GAS  C:\Users\papag\AppData\Local\Temp\cc4TIa1y.s 			page 9


 344              		.loc 1 59 35 is_stmt 1 view -0
 345              		.cfi_startproc
 346              		@ args = 0, pretend = 0, frame = 0
 347              		@ frame_needed = 0, uses_anonymous_args = 0
 348              		@ link register save eliminated.
  60:track.cpp     ****     return button;
 349              		.loc 1 60 5 view .LVU99
  61:track.cpp     **** }
 350              		.loc 1 61 1 is_stmt 0 view .LVU100
 351 0000 8068     		ldr	r0, [r0, #8]
 352              	.LVL20:
 353              		.loc 1 61 1 view .LVU101
 354 0002 7047     		bx	lr
 355              		.cfi_endproc
 356              	.LFE4794:
 358              		.section	.text._ZN5Track5CheckEbb,"ax",%progbits
 359              		.align	1
 360              		.p2align 2,,3
 361              		.global	_ZN5Track5CheckEbb
 362              		.syntax unified
 363              		.thumb
 364              		.thumb_func
 365              		.fpu fpv5-d16
 367              	_ZN5Track5CheckEbb:
 368              	.LVL21:
 369              	.LFB4795:
  62:track.cpp     **** 
  63:track.cpp     **** void Track::Check(bool clear, bool record)
  64:track.cpp     **** {
 370              		.loc 1 64 1 is_stmt 1 view -0
 371              		.cfi_startproc
 372              		@ args = 0, pretend = 0, frame = 0
 373              		@ frame_needed = 0, uses_anonymous_args = 0
  65:track.cpp     ****     bool clicked = button->Check();
 374              		.loc 1 65 5 view .LVU103
  64:track.cpp     ****     bool clicked = button->Check();
 375              		.loc 1 64 1 is_stmt 0 view .LVU104
 376 0000 70B5     		push	{r4, r5, r6, lr}
 377              		.cfi_def_cfa_offset 16
 378              		.cfi_offset 4, -16
 379              		.cfi_offset 5, -12
 380              		.cfi_offset 6, -8
 381              		.cfi_offset 14, -4
  64:track.cpp     ****     bool clicked = button->Check();
 382              		.loc 1 64 1 view .LVU105
 383 0002 0446     		mov	r4, r0
 384              		.loc 1 65 33 view .LVU106
 385 0004 8068     		ldr	r0, [r0, #8]
 386              	.LVL22:
  64:track.cpp     ****     bool clicked = button->Check();
 387              		.loc 1 64 1 view .LVU107
 388 0006 0D46     		mov	r5, r1
 389 0008 1646     		mov	r6, r2
 390              		.loc 1 65 33 view .LVU108
 391 000a FFF7FEFF 		bl	_ZN6Button5CheckEv
 392              	.LVL23:
  66:track.cpp     ****     if(clicked) {
ARM GAS  C:\Users\papag\AppData\Local\Temp\cc4TIa1y.s 			page 10


 393              		.loc 1 66 5 is_stmt 1 view .LVU109
 394              	.LBB11:
 395 000e 00B9     		cbnz	r0, .L38
 396              	.LVL24:
 397              	.L22:
 398              		.loc 1 66 5 is_stmt 0 view .LVU110
 399              	.LBE11:
  67:track.cpp     ****         bool longClick = button->GetLong();
  68:track.cpp     ****         if(longClick) {
  69:track.cpp     ****             if(!clear && !record) {
  70:track.cpp     ****                 if(state == BLANK)
  71:track.cpp     ****                     nextState = RECORDING;
  72:track.cpp     ****                 else if(state == PLAYING || state == RECORDING)
  73:track.cpp     ****                     nextState = MUTED;
  74:track.cpp     ****                 else if(state == MUTED)
  75:track.cpp     ****                     nextState = PLAYING;
  76:track.cpp     ****             }
  77:track.cpp     ****         } else {
  78:track.cpp     ****             if(!clear && !record) {
  79:track.cpp     ****                 if(state == PLAYING)
  80:track.cpp     ****                     nextState = state = MUTED;
  81:track.cpp     ****                 else if(state == MUTED)
  82:track.cpp     ****                     nextState = state = PLAYING;
  83:track.cpp     ****                 else if(state == BLANK)
  84:track.cpp     ****                 {
  85:track.cpp     ****                     state = RECORDING;
  86:track.cpp     ****                     nextState = PLAYING;
  87:track.cpp     ****                 }
  88:track.cpp     ****             } else if(!clear && record)
  89:track.cpp     ****             {
  90:track.cpp     ****                 if(state != RECORDING)
  91:track.cpp     ****                     nextState = RECORDING;
  92:track.cpp     ****                 else
  93:track.cpp     ****                     nextState = state;
  94:track.cpp     ****             }
  95:track.cpp     ****         }
  96:track.cpp     ****     }
  97:track.cpp     **** }
 400              		.loc 1 97 1 view .LVU111
 401 0010 70BD     		pop	{r4, r5, r6, pc}
 402              	.LVL25:
 403              	.L38:
 404              	.LBB18:
 405              	.LBB12:
  67:track.cpp     ****         bool longClick = button->GetLong();
 406              		.loc 1 67 9 is_stmt 1 view .LVU112
  67:track.cpp     ****         bool longClick = button->GetLong();
 407              		.loc 1 67 41 is_stmt 0 view .LVU113
 408 0012 A068     		ldr	r0, [r4, #8]
 409              	.LVL26:
  67:track.cpp     ****         bool longClick = button->GetLong();
 410              		.loc 1 67 41 view .LVU114
 411 0014 FFF7FEFF 		bl	_ZN6Button7GetLongEv
 412              	.LVL27:
  68:track.cpp     ****             if(!clear && !record) {
 413              		.loc 1 68 9 is_stmt 1 view .LVU115
 414 0018 60B9     		cbnz	r0, .L39
ARM GAS  C:\Users\papag\AppData\Local\Temp\cc4TIa1y.s 			page 11


  78:track.cpp     ****                 if(state == PLAYING)
 415              		.loc 1 78 13 view .LVU116
 416 001a CDB9     		cbnz	r5, .L29
 417 001c C6B9     		cbnz	r6, .L29
  79:track.cpp     ****                     nextState = state = MUTED;
 418              		.loc 1 79 17 view .LVU117
  79:track.cpp     ****                     nextState = state = MUTED;
 419              		.loc 1 79 20 is_stmt 0 view .LVU118
 420 001e 2378     		ldrb	r3, [r4]	@ zero_extendqisi2
  79:track.cpp     ****                     nextState = state = MUTED;
 421              		.loc 1 79 17 view .LVU119
 422 0020 022B     		cmp	r3, #2
 423 0022 20D0     		beq	.L40
  81:track.cpp     ****                     nextState = state = PLAYING;
 424              		.loc 1 81 22 is_stmt 1 view .LVU120
 425 0024 012B     		cmp	r3, #1
 426 0026 1AD0     		beq	.L41
  83:track.cpp     ****                 {
 427              		.loc 1 83 22 view .LVU121
 428 0028 002B     		cmp	r3, #0
 429 002a F1D1     		bne	.L22
  85:track.cpp     ****                     nextState = PLAYING;
 430              		.loc 1 85 21 view .LVU122
  86:track.cpp     ****                 }
 431              		.loc 1 86 21 view .LVU123
  85:track.cpp     ****                     nextState = PLAYING;
 432              		.loc 1 85 27 is_stmt 0 view .LVU124
 433 002c 40F20323 		movw	r3, #515
 434 0030 2380     		strh	r3, [r4]	@ movhi
 435              	.LBE12:
 436              	.LBE18:
 437              		.loc 1 97 1 view .LVU125
 438 0032 70BD     		pop	{r4, r5, r6, pc}
 439              	.LVL28:
 440              	.L39:
 441              	.LBB19:
 442              	.LBB13:
  69:track.cpp     ****                 if(state == BLANK)
 443              		.loc 1 69 13 is_stmt 1 view .LVU126
 444 0034 002D     		cmp	r5, #0
 445 0036 EBD1     		bne	.L22
 446 0038 002E     		cmp	r6, #0
 447 003a E9D1     		bne	.L22
  70:track.cpp     ****                     nextState = RECORDING;
 448              		.loc 1 70 17 view .LVU127
  70:track.cpp     ****                     nextState = RECORDING;
 449              		.loc 1 70 20 is_stmt 0 view .LVU128
 450 003c 2378     		ldrb	r3, [r4]	@ zero_extendqisi2
  70:track.cpp     ****                     nextState = RECORDING;
 451              		.loc 1 70 17 view .LVU129
 452 003e 5BB1     		cbz	r3, .L32
  72:track.cpp     ****                     nextState = MUTED;
 453              		.loc 1 72 22 is_stmt 1 view .LVU130
 454 0040 9A1E     		subs	r2, r3, #2
 455 0042 012A     		cmp	r2, #1
 456 0044 13D9     		bls	.L42
  74:track.cpp     ****                     nextState = PLAYING;
ARM GAS  C:\Users\papag\AppData\Local\Temp\cc4TIa1y.s 			page 12


 457              		.loc 1 74 22 view .LVU131
 458 0046 012B     		cmp	r3, #1
 459 0048 E2D1     		bne	.L22
  75:track.cpp     ****             }
 460              		.loc 1 75 21 view .LVU132
  75:track.cpp     ****             }
 461              		.loc 1 75 31 is_stmt 0 view .LVU133
 462 004a 0223     		movs	r3, #2
 463 004c 6370     		strb	r3, [r4, #1]
 464              	.LBE13:
 465              	.LBE19:
 466              		.loc 1 97 1 view .LVU134
 467 004e 70BD     		pop	{r4, r5, r6, pc}
 468              	.LVL29:
 469              	.L29:
 470              	.LBB20:
 471              	.LBB14:
  88:track.cpp     ****             {
 472              		.loc 1 88 20 is_stmt 1 view .LVU135
 473 0050 012D     		cmp	r5, #1
 474 0052 DDD0     		beq	.L22
 475 0054 002E     		cmp	r6, #0
 476 0056 DBD0     		beq	.L22
 477              	.L32:
  71:track.cpp     ****                 else if(state == PLAYING || state == RECORDING)
 478              		.loc 1 71 21 view .LVU136
  71:track.cpp     ****                 else if(state == PLAYING || state == RECORDING)
 479              		.loc 1 71 31 is_stmt 0 view .LVU137
 480 0058 0323     		movs	r3, #3
 481 005a 6370     		strb	r3, [r4, #1]
 482              	.LBE14:
 483              	.LBE20:
 484              		.loc 1 97 1 view .LVU138
 485 005c 70BD     		pop	{r4, r5, r6, pc}
 486              	.LVL30:
 487              	.L41:
 488              	.LBB21:
 489              	.LBB15:
  82:track.cpp     ****                 else if(state == BLANK)
 490              		.loc 1 82 21 is_stmt 1 view .LVU139
  82:track.cpp     ****                 else if(state == BLANK)
 491              		.loc 1 82 39 is_stmt 0 view .LVU140
 492 005e 40F20223 		movw	r3, #514
 493 0062 2380     		strh	r3, [r4]	@ movhi
 494              	.LBE15:
 495              	.LBE21:
 496              		.loc 1 97 1 view .LVU141
 497 0064 70BD     		pop	{r4, r5, r6, pc}
 498              	.LVL31:
 499              	.L40:
 500              	.LBB22:
 501              	.LBB16:
  80:track.cpp     ****                 else if(state == MUTED)
 502              		.loc 1 80 21 is_stmt 1 view .LVU142
  80:track.cpp     ****                 else if(state == MUTED)
 503              		.loc 1 80 39 is_stmt 0 view .LVU143
 504 0066 40F20113 		movw	r3, #257
ARM GAS  C:\Users\papag\AppData\Local\Temp\cc4TIa1y.s 			page 13


 505 006a 2380     		strh	r3, [r4]	@ movhi
 506              	.LBE16:
 507              	.LBE22:
 508              		.loc 1 97 1 view .LVU144
 509 006c 70BD     		pop	{r4, r5, r6, pc}
 510              	.LVL32:
 511              	.L42:
 512              	.LBB23:
 513              	.LBB17:
  73:track.cpp     ****                 else if(state == MUTED)
 514              		.loc 1 73 21 is_stmt 1 view .LVU145
  73:track.cpp     ****                 else if(state == MUTED)
 515              		.loc 1 73 31 is_stmt 0 view .LVU146
 516 006e 0123     		movs	r3, #1
 517 0070 6370     		strb	r3, [r4, #1]
 518              	.LBE17:
 519              	.LBE23:
 520              		.loc 1 97 1 view .LVU147
 521 0072 70BD     		pop	{r4, r5, r6, pc}
 522              		.loc 1 97 1 view .LVU148
 523              		.cfi_endproc
 524              	.LFE4795:
 526              		.text
 527              	.Letext0:
 528              		.file 2 "c:\\program files\\daisytoolchain\\arm-none-eabi\\include\\machine\\_default_types.h"
 529              		.file 3 "c:\\program files\\daisytoolchain\\arm-none-eabi\\include\\sys\\_stdint.h"
 530              		.file 4 "c:\\program files\\daisytoolchain\\arm-none-eabi\\include\\stdint.h"
 531              		.file 5 "c:\\program files\\daisytoolchain\\lib\\gcc\\arm-none-eabi\\10.2.1\\include\\stddef.h"
 532              		.file 6 "c:\\program files\\daisytoolchain\\arm-none-eabi\\include\\c++\\10.2.1\\cmath"
 533              		.file 7 "c:\\program files\\daisytoolchain\\arm-none-eabi\\include\\c++\\10.2.1\\bits\\std_abs.h"
 534              		.file 8 "c:\\program files\\daisytoolchain\\arm-none-eabi\\include\\c++\\10.2.1\\cstdlib"
 535              		.file 9 "c:\\program files\\daisytoolchain\\arm-none-eabi\\include\\c++\\10.2.1\\cstdint"
 536              		.file 10 "c:\\program files\\daisytoolchain\\arm-none-eabi\\include\\c++\\10.2.1\\type_traits"
 537              		.file 11 "c:\\program files\\daisytoolchain\\arm-none-eabi\\include\\c++\\10.2.1\\debug\\debug.h"
 538              		.file 12 "c:\\program files\\daisytoolchain\\arm-none-eabi\\include\\c++\\10.2.1\\arm-none-eabi\\t
 539              		.file 13 "c:\\program files\\daisytoolchain\\arm-none-eabi\\include\\c++\\10.2.1\\bits\\algorithmf
 540              		.file 14 "c:\\program files\\daisytoolchain\\arm-none-eabi\\include\\c++\\10.2.1\\bits\\stl_pair.h
 541              		.file 15 "c:\\program files\\daisytoolchain\\arm-none-eabi\\include\\c++\\10.2.1\\bits\\exception_
 542              		.file 16 "c:\\program files\\daisytoolchain\\arm-none-eabi\\include\\c++\\10.2.1\\cstdarg"
 543              		.file 17 "c:\\program files\\daisytoolchain\\arm-none-eabi\\include\\c++\\10.2.1\\cstdio"
 544              		.file 18 "c:\\program files\\daisytoolchain\\arm-none-eabi\\include\\c++\\10.2.1\\cstring"
 545              		.file 19 "c:\\program files\\daisytoolchain\\arm-none-eabi\\include\\c++\\10.2.1\\cwchar"
 546              		.file 20 "c:\\program files\\daisytoolchain\\arm-none-eabi\\include\\c++\\10.2.1\\clocale"
 547              		.file 21 "c:\\program files\\daisytoolchain\\arm-none-eabi\\include\\c++\\10.2.1\\bits\\basic_stri
 548              		.file 22 "c:\\program files\\daisytoolchain\\arm-none-eabi\\include\\c++\\10.2.1\\bits\\stl_tempbu
 549              		.file 23 "c:\\program files\\daisytoolchain\\arm-none-eabi\\include\\c++\\10.2.1\\bits\\predefined
 550              		.file 24 "c:\\program files\\daisytoolchain\\arm-none-eabi\\include\\sys\\_types.h"
 551              		.file 25 "c:\\program files\\daisytoolchain\\arm-none-eabi\\include\\sys\\reent.h"
 552              		.file 26 "c:\\program files\\daisytoolchain\\arm-none-eabi\\include\\sys\\lock.h"
 553              		.file 27 "c:\\program files\\daisytoolchain\\arm-none-eabi\\include\\math.h"
 554              		.file 28 "c:\\program files\\daisytoolchain\\arm-none-eabi\\include\\stdlib.h"
 555              		.file 29 "c:\\program files\\daisytoolchain\\arm-none-eabi\\include\\c++\\10.2.1\\math.h"
 556              		.file 30 "c:\\program files\\daisytoolchain\\arm-none-eabi\\include\\c++\\10.2.1\\stdlib.h"
 557              		.file 31 "../DaisyExamples/libDaisy/src/daisy_core.h"
 558              		.file 32 "../DaisyExamples/libDaisy/src/per/gpio.h"
 559              		.file 33 "../DaisyExamples/libDaisy/src/util/wav_format.h"
 560              		.file 34 "../DaisyExamples/libDaisy/src/dev/max11300.h"
ARM GAS  C:\Users\papag\AppData\Local\Temp\cc4TIa1y.s 			page 14


 561              		.file 35 "../DaisyExamples/libDaisy/src/daisy_seed.h"
 562              		.file 36 "c:\\program files\\daisytoolchain\\lib\\gcc\\arm-none-eabi\\10.2.1\\include\\stdarg.h"
 563              		.file 37 "c:\\program files\\daisytoolchain\\arm-none-eabi\\include\\sys\\types.h"
 564              		.file 38 "c:\\program files\\daisytoolchain\\arm-none-eabi\\include\\stdio.h"
 565              		.file 39 "c:\\program files\\daisytoolchain\\arm-none-eabi\\include\\string.h"
 566              		.file 40 "../DaisyExamples/DaisySP/Source/Control/adenv.h"
 567              		.file 41 "../DaisyExamples/DaisySP/Source/Utility/dsp.h"
 568              		.file 42 "c:\\program files\\daisytoolchain\\arm-none-eabi\\include\\wchar.h"
 569              		.file 43 "c:\\program files\\daisytoolchain\\arm-none-eabi\\include\\locale.h"
 570              		.file 44 "button.h"
 571              		.file 45 "dualLedButton.h"
 572              		.file 46 "track.h"
 573              		.file 47 "<built-in>"
 574              		.file 48 "../DaisyExamples/libDaisy/src/dev/sr_595.h"
ARM GAS  C:\Users\papag\AppData\Local\Temp\cc4TIa1y.s 			page 15


DEFINED SYMBOLS
                            *ABS*:00000000 track.cpp
C:\Users\papag\AppData\Local\Temp\cc4TIa1y.s:17     .text._ZN5TrackC2EiP13DualLedButton:00000000 $t
C:\Users\papag\AppData\Local\Temp\cc4TIa1y.s:26     .text._ZN5TrackC2EiP13DualLedButton:00000000 _ZN5TrackC2EiP13DualLedButton
C:\Users\papag\AppData\Local\Temp\cc4TIa1y.s:26     .text._ZN5TrackC2EiP13DualLedButton:00000000 _ZN5TrackC1EiP13DualLedButton
C:\Users\papag\AppData\Local\Temp\cc4TIa1y.s:65     .text._ZN5Track3NewEiP13DualLedButton:00000000 $t
C:\Users\papag\AppData\Local\Temp\cc4TIa1y.s:73     .text._ZN5Track3NewEiP13DualLedButton:00000000 _ZN5Track3NewEiP13DualLedButton
C:\Users\papag\AppData\Local\Temp\cc4TIa1y.s:124    .text._ZN5Track5AudioEffPfS0_S0_S0_:00000000 $t
C:\Users\papag\AppData\Local\Temp\cc4TIa1y.s:132    .text._ZN5Track5AudioEffPfS0_S0_S0_:00000000 _ZN5Track5AudioEffPfS0_S0_S0_
C:\Users\papag\AppData\Local\Temp\cc4TIa1y.s:297    .text._ZN5Track4LoopEv:00000000 $t
C:\Users\papag\AppData\Local\Temp\cc4TIa1y.s:305    .text._ZN5Track4LoopEv:00000000 _ZN5Track4LoopEv
C:\Users\papag\AppData\Local\Temp\cc4TIa1y.s:333    .text._ZN5Track9GetButtonEv:00000000 $t
C:\Users\papag\AppData\Local\Temp\cc4TIa1y.s:341    .text._ZN5Track9GetButtonEv:00000000 _ZN5Track9GetButtonEv
C:\Users\papag\AppData\Local\Temp\cc4TIa1y.s:359    .text._ZN5Track5CheckEbb:00000000 $t
C:\Users\papag\AppData\Local\Temp\cc4TIa1y.s:367    .text._ZN5Track5CheckEbb:00000000 _ZN5Track5CheckEbb

UNDEFINED SYMBOLS
_ZN13DualLedButton5GreenEv
_ZN13DualLedButton3RedEv
_ZN13DualLedButton3OffEv
_ZN6Button5CheckEv
_ZN6Button7GetLongEv
